(dp1
S'output'
p2
S"<type 'exceptions.ValueError'> invalid literal for long() with base 10: '11/'"
p3
sS'layer'
p4
S'/home/saurabh/web2py/applications/NewsPortal/controllers/default.py'
p5
sS'code'
p6
S'# -*- coding: utf-8 -*-\n# this file is released under public domain and you can use without limitations\n\n#########################################################################\n## This is a sample controller\n## - index is the default action of any application\n## - user is required for authentication and authorization\n## - download is for downloading files uploaded in the db (does streaming)\n## - call exposes all registered services (none by default)\n#########################################################################\n\n@auth.requires_login()\ndef index():\n    """\n    example action using the internationalization operator T and flash\n    rendered by views/default/index.html or views/generic.html\n\n    if you need a simple wiki simple replace the two lines below with:\n    return auth.wiki()\n    """\n    #response.flash = T("Welcome to web2py!")\n    if(auth.user.designation==\'A\'):\n            redirect(\'admin_page\')\n    else:\n            redirect(\'user_page\')\n #   return dict(message=T(\'Hello World\'))\n    return locals()\n\n\ndef user():\n    """\n    exposes:\n    http://..../[app]/default/user/login\n    http://..../[app]/default/user/logout\n    http://..../[app]/default/user/register\n    http://..../[app]/default/user/profile\n    http://..../[app]/default/user/retrieve_password\n    http://..../[app]/default/user/change_password\n    http://..../[app]/default/user/manage_users (requires membership in \n    use @auth.requires_login()\n        @auth.requires_membership(\'group name\')\n        @auth.requires_permission(\'read\',\'table name\',record_id)\n    to decorate functions that need access control\n    """\n    return dict(form=auth())\n\n@cache.action()\ndef download():\n    """\n    allows downloading of uploaded files\n    http://..../[app]/default/download/[filename]\n    """\n    return response.download(request, db)\n\n\ndef call():\n    """\n    exposes services. for example:\n    http://..../[app]/default/call/jsonrpc\n    decorate with @services.jsonrpc the functions to expose\n    supports xml, json, xmlrpc, jsonrpc, amfrpc, rss, csv\n    """\n    return service()\n\n\n@auth.requires_signature()\ndef data():\n    """\n    http://..../[app]/default/data/tables\n    http://..../[app]/default/data/create/[table]\n    http://..../[app]/default/data/read/[table]/[id]\n    http://..../[app]/default/data/update/[table]/[id]\n    http://..../[app]/default/data/delete/[table]/[id]\n    http://..../[app]/default/data/select/[table]\n    http://..../[app]/default/data/search/[table]\n    but URLs must be signed, i.e. linked with\n      A(\'table\',_href=URL(\'data/tables\',user_signature=True))\n    or with the signed load operator\n      LOAD(\'default\',\'data.load\',args=\'tables\',ajax=True,user_signature=True)\n    """\n    return dict(form=crud())\n    \ndef admin_page():\n        return locals()\ndef user_page():\n        return locals()\ndef post_news():\n        form=SQLFORM(db.news)\n        form.vars.postedby=auth.user.first_name+" "+auth.user.last_name\n        if form.accepts(request,session):\n                session.flash=T("Successfully inserted news")\n                redirect(\'index\')\n                return locals()   \n        else:\n                session.flash=T("Fill the form correctly")\n        return dict(form=form)\ndef add_category():\n        form = SQLFORM(db.category)\n        if form.process().accepted:\n                print "sdcsdcdscds"\n                session.flash=\'Successfully added new category\'\n                redirect(URL(\'index\'))\n                #return locals()\n        elif form.errors:\n                print "booba"\n               # session.flash=T(\'Fill the form correctly\')\n        return dict(form=form)\ndef view_news():\n        x=db(db.category.id>0).select(db.category.ALL)\n        return dict(x=x)\ndef display():\n        category_id=request.vars.cate\n        x=db(db.news.category==category_id).select(db.news.ALL,orderby=~(db.news.rating))\n        return dict(x=x)\ndef likes():\n        news_id=request.vars.nid\n        print news_id\n        news_id=news_id[:-1]\n        print news_id\n        x=db((db.nlikes.news_id==news_id)&(auth.user.id==db.nlikes.user_id)).select(db.nlikes.like_number)\n        num=db(db.news.id==news_id).select(db.news.likes,db.news.dislikes)\n        print "num"\n        print news_id\n        print "adxasxdasd"\n        if(x):\n                if(x[0][\'like_number\']==5):\n                        db(db.news.id==news_id).update(likes=num[0][\'likes\']-1)\n                        db((db.nlikes.news_id==news_id)&(auth.user.id==db.nlikes.user_id)).update(like_number=0)\n                elif(x[0][\'like_number\']==-3):\n                        db(db.news.id==news_id).update(likes=num[0][\'likes\']+1)                            \n                        db(db.news.id==news_id).update(dislikes=num[0][\'dislikes\']-1)\n                        db((db.nlikes.news_id==news_id)&(auth.user.id==db.nlikes.user_id)).update(like_number=5)\n                else:\n                        db(db.news.id==news_id).update(likes=num[0][\'likes\']+1)\n                        db((db.nlikes.news_id==news_id)&(auth.user.id==db.nlikes.user_id)).update(like_number=5)\n        else:\n                print "nlikes"\n                db(db.news.id==news_id).update(likes=num[0][\'likes\']+1)\n                db.nlikes.insert(news_id=news_id,user_id=auth.user.id,like_number=5)\n        y=db(news_id==db.nlikes.news_id).select(db.nlikes.like_number)\n        r=0\n        category=db(news_id==db.news.id).select(db.news.category)\n        category=category[0][\'category\']\n        st=""\n        st=st+"display?cate="+str(category)\n        print category\n        for i in range(len(y)):\n                r+=y[i][\'like_number\']\n        db(news_id==db.news.id).update(rating=100+r)\n        redirect(st)\n        return locals()\n        \n        \n        \ndef dislikes():\n        news_id=request.vars.nid\n        print "nid"\n        print news_id\n        print type(news_id)\n        news_id=news_id[:-1]\n        x=db((db.nlikes.news_id==news_id)&(auth.user.id==db.nlikes.user_id)).select(db.nlikes.like_number)\n        num=db(db.news.id==news_id).select(db.news.likes,db.news.dislikes)\n        if(x):\n                if(x[0][\'like_number\']==5):\n                        db(db.news.id==news_id).update(likes=num[0][\'likes\']-1)\n                        db(db.news.id==news_id).update(dislikes=num[0][\'dislikes\']+1)\n                        db((db.nlikes.news_id==news_id)&(auth.user.id==db.nlikes.user_id)).update(like_number=-3)\n                        print "1"\n                elif(x[0][\'like_number\']==-3):                          \n                        db(db.news.id==news_id).update(dislikes=num[0][\'dislikes\']-1)\n                        db((db.nlikes.news_id==news_id)&(auth.user.id==db.nlikes.user_id)).update(like_number=0)\n                        print "2"\n                else:\n                        db(db.news.id==news_id).update(dislikes=num[0][\'dislikes\']+1)\n                        db((db.nlikes.news_id==news_id)&(auth.user.id==db.nlikes.user_id)).update(like_number=-3)\n                        print "3"\n        else:\n                print "nlikes"\n                print "4"\n                db(db.news.id==news_id).update(dislikes=num[0][\'dislikes\']+1)\n                db.nlikes.insert(news_id=news_id,user_id=auth.user.id,like_number=-3)\n        y=db(db.nlikes.news_id==news_id).select(db.nlikes.like_number)\n        r=0\n        category=db(news_id==db.news.id).select(db.news.category)\n        category=category[0][\'category\']\n        st=""\n        st=st+"display?cate="+str(category)\n        print category\n        for i in range(len(y)):\n                r+=y[i][\'like_number\']\n        db(news_id==db.news.id).update(rating=100+r)\n        redirect(st)\n        return locals()\ndef add_comment():\n        commentdata=request.post_vars[\'com\']\n        news_id=request.post_vars[\'news_id\']\n        db.comments.insert(commentdata=commentdata,user_id=auth.user.id,news_id=news_id)\n        category=db(news_id==db.news.id).select(db.news.category)\n        category=category[0][\'category\']\n        st=""\n        st=st+"display?cate="+str(category)\n        redirect(st)\n\nresponse._vars=response._caller(add_comment)\n'
p7
sS'snapshot'
p8
(dp9
S'exception'
p10
(dp11
S'__hash__'
p12
S"<method-wrapper '__hash__' of exceptions.ValueError object>"
p13
sS'__setattr__'
p14
S"<method-wrapper '__setattr__' of exceptions.ValueError object>"
p15
sS'__reduce_ex__'
p16
S'<built-in method __reduce_ex__ of exceptions.ValueError object>'
p17
sS'__getslice__'
p18
S"<method-wrapper '__getslice__' of exceptions.ValueError object>"
p19
sS'__getitem__'
p20
S"<method-wrapper '__getitem__' of exceptions.ValueError object>"
p21
sS'__setstate__'
p22
S'<built-in method __setstate__ of exceptions.ValueError object>'
p23
sS'__reduce__'
p24
S'<built-in method __reduce__ of exceptions.ValueError object>'
p25
sS'__str__'
p26
S"<method-wrapper '__str__' of exceptions.ValueError object>"
p27
sS'__format__'
p28
S'<built-in method __format__ of exceptions.ValueError object>'
p29
sS'__getattribute__'
p30
S"<method-wrapper '__getattribute__' of exceptions.ValueError object>"
p31
sS'__class__'
p32
S"<type 'exceptions.ValueError'>"
p33
sS'__unicode__'
p34
S'<built-in method __unicode__ of exceptions.ValueError object>'
p35
sS'__delattr__'
p36
S"<method-wrapper '__delattr__' of exceptions.ValueError object>"
p37
sS'__subclasshook__'
p38
S'<built-in method __subclasshook__ of type object>'
p39
sS'__repr__'
p40
S"<method-wrapper '__repr__' of exceptions.ValueError object>"
p41
sS'args'
p42
S'("invalid literal for long() with base 10: \'11/\'",)'
p43
sS'__dict__'
p44
S'{}'
p45
sS'__sizeof__'
p46
S'<built-in method __sizeof__ of exceptions.ValueError object>'
p47
sS'__doc__'
p48
S"'Inappropriate argument value (of correct type).'"
p49
sS'__init__'
p50
S"<method-wrapper '__init__' of exceptions.ValueError object>"
p51
sS'__new__'
p52
S'<built-in method __new__ of type object>'
p53
ssS'evalue'
p54
S"invalid literal for long() with base 10: '11/'"
p55
sS'request'
p56
cgluon.html
XML_unpickle
p57
(S's7]\x00\x00<div><table><tr><td style="font-weight:bold;vertical-align:top">ajax</td><td valign="top">:</td><td><div>False</div></td></tr><tr><td style="font-weight:bold;vertical-align:top">application</td><td valign="top">:</td><td><div>NewsPortal</div></td></tr><tr><td style="font-weight:bold;vertical-align:top">args</td><td valign="top">:</td><td><div><table><tr><td><div>11</div></td></tr></table></div></td></tr><tr><td style="font-weight:bold;vertical-align:top">body</td><td valign="top">:</td><td><div>&lt;open file &#x27;&lt;fdopen&gt;&#x27;, mode &#x27;w+b&#x27; at 0xade1b808&gt;</div></td></tr><tr><td style="font-weight:bold;vertical-align:top">cid</td><td valign="top">:</td><td><div>None</div></td></tr><tr><td style="font-weight:bold;vertical-align:top">client</td><td valign="top">:</td><td><div>127.0.0.1</div></td></tr><tr><td style="font-weight:bold;vertical-align:top">controller</td><td valign="top">:</td><td><div>default</div></td></tr><tr><td style="font-weight:bold;vertical-align:top">cookies</td><td valign="top">:</td><td><div><table><tr><td style="font-weight:bold;vertical-align:top">session_id_admin</td><td valign="top">:</td><td><div>127.0.0.1-8e4d65d2-72d5-4cae-9d2d-b189f712c28f<table><tr><td style="font-weight:bold;vertical-align:top">comment</td><td valign="top">:</td><td><div></div></td></tr><tr><td style="font-weight:bold;vertical-align:top">domain</td><td valign="top">:</td><td><div></div></td></tr><tr><td style="font-weight:bold;vertical-align:top">expires</td><td valign="top">:</td><td><div></div></td></tr><tr><td style="font-weight:bold;vertical-align:top">httponly</td><td valign="top">:</td><td><div></div></td></tr><tr><td style="font-weight:bold;vertical-align:top">max-age</td><td valign="top">:</td><td><div></div></td></tr><tr><td style="font-weight:bold;vertical-align:top">path</td><td valign="top">:</td><td><div></div></td></tr><tr><td style="font-weight:bold;vertical-align:top">secure</td><td valign="top">:</td><td><div></div></td></tr><tr><td style="font-weight:bold;vertical-align:top">version</td><td valign="top">:</td><td><div></div></td></tr></table></div></td></tr><tr><td style="font-weight:bold;vertical-align:top">session_id_newsportal</td><td valign="top">:</td><td><div>127.0.0.1-e8c59e48-5766-4ea4-af47-27269a6bd7bf<table><tr><td style="font-weight:bold;vertical-align:top">comment</td><td valign="top">:</td><td><div></div></td></tr><tr><td style="font-weight:bold;vertical-align:top">domain</td><td valign="top">:</td><td><div></div></td></tr><tr><td style="font-weight:bold;vertical-align:top">expires</td><td valign="top">:</td><td><div></div></td></tr><tr><td style="font-weight:bold;vertical-align:top">httponly</td><td valign="top">:</td><td><div></div></td></tr><tr><td style="font-weight:bold;vertical-align:top">max-age</td><td valign="top">:</td><td><div></div></td></tr><tr><td style="font-weight:bold;vertical-align:top">path</td><td valign="top">:</td><td><div></div></td></tr><tr><td style="font-weight:bold;vertical-align:top">secure</td><td valign="top">:</td><td><div></div></td></tr><tr><td style="font-weight:bold;vertical-align:top">version</td><td valign="top">:</td><td><div></div></td></tr></table></div></td></tr><tr><td style="font-weight:bold;vertical-align:top">session_id_welcome</td><td valign="top">:</td><td><div>127.0.0.1-761d2c3e-0e40-4e66-871a-9e1dad97b18b<table><tr><td style="font-weight:bold;vertical-align:top">comment</td><td valign="top">:</td><td><div></div></td></tr><tr><td style="font-weight:bold;vertical-align:top">domain</td><td valign="top">:</td><td><div></div></td></tr><tr><td style="font-weight:bold;vertical-align:top">expires</td><td valign="top">:</td><td><div></div></td></tr><tr><td style="font-weight:bold;vertical-align:top">httponly</td><td valign="top">:</td><td><div></div></td></tr><tr><td style="font-weight:bold;vertical-align:top">max-age</td><td valign="top">:</td><td><div></div></td></tr><tr><td style="font-weight:bold;vertical-align:top">path</td><td valign="top">:</td><td><div></div></td></tr><tr><td style="font-weight:bold;vertical-align:top">secure</td><td valign="top">:</td><td><div></div></td></tr><tr><td style="font-weight:bold;vertical-align:top">version</td><td valign="top">:</td><td><div></div></td></tr></table></div></td></tr></table></div></td></tr><tr><td style="font-weight:bold;vertical-align:top">env</td><td valign="top">:</td><td><div><table><tr><td style="font-weight:bold;vertical-align:top">app_folders</td><td valign="top">:</td><td><div>set([&#x27;/home/saurabh/web2py/applications/admin/&#x27;, &#x27;/home/saurabh/web2py/applications/NewsPortal/&#x27;, &#x27;/home/saurabh/web2py/applications/welcome/&#x27;])</div></td></tr><tr><td style="font-weight:bold;vertical-align:top">applications_parent</td><td valign="top">:</td><td><div>/home/saurabh/web2py</div></td></tr><tr><td style="font-weight:bold;vertical-align:top">cmd_args</td><td valign="top">:</td><td><div><table></table></div></td></tr><tr><td style="font-weight:bold;vertical-align:top">cmd_options</td><td valign="top">:</td><td><div>&lt;Values at 0xa3e56ac: {&#x27;verbose&#x27;: False, &#x27;ip&#x27;: &#x27;127.0.0.1&#x27;, &#x27;with_scheduler&#x27;: False, &#x27;ips&#x27;: [&#x27;127.0.1.1&#x27;], &#x27;shutdown_timeout&#x27;: 5, &#x27;taskbar&#x27;: False, &#x27;with_coverage&#x27;: False, &#x27;port&#x27;: 8000, &#x27;maxthreads&#x27;: None, &#x27;softcron&#x27;: False, &#x27;server_name&#x27;: &#x27;saurabh-Inspiron-N4050&#x27;, &#x27;bpython&#x27;: False, &#x27;nogui&#x27;: False, &#x27;pid_filename&#x27;: &#x27;httpserver.pid&#x27;, &#x27;extcron&#x27;: False, &#x27;runcron&#x27;: False, &#x27;run_system_tests&#x27;: False, &#x27;test&#x27;: None, &#x27;folder&#x27;: &#x27;/home/saurabh/web2py&#x27;, &#x27;config&#x27;: &#x27;&#x27;, &#x27;import_models&#x27;: False, &#x27;winservice&#x27;: &#x27;&#x27;, &#x27;shell&#x27;: None, &#x27;run&#x27;: &#x27;&#x27;, &#x27;log_filename&#x27;: &#x27;httpserver.log&#x27;, &#x27;debuglevel&#x27;: 30, &#x27;args&#x27;: [&#x27;&#x27;], &#x27;socket_timeout&#x27;: 5, &#x27;ssl_ca_certificate&#x27;: None, &#x27;scheduler&#x27;: None, &#x27;profiler_filename&#x27;: None, &#x27;ssl_private_key&#x27;: &#x27;&#x27;, &#x27;scheduler_groups&#x27;: None, &#x27;password&#x27;: &#x27;&lt;ask&gt;&#x27;, &#x27;request_queue_size&#x27;: 5, &#x27;ssl_certificate&#x27;: &#x27;&#x27;, &#x27;cronjob&#x27;: False, &#x27;numthreads&#x27;: None, &#x27;quiet&#x27;: False, &#x27;interfaces&#x27;: None, &#x27;minthreads&#x27;: None, &#x27;timeout&#x27;: 10, &#x27;plain&#x27;: False, &#x27;nobanner&#x27;: False}&gt;</div></td></tr><tr><td style="font-weight:bold;vertical-align:top">content_length</td><td valign="top">:</td><td><div>51</div></td></tr><tr><td style="font-weight:bold;vertical-align:top">content_type</td><td valign="top">:</td><td><div>application/x-www-form-urlencoded</div></td></tr><tr><td style="font-weight:bold;vertical-align:top">db_sessions</td><td valign="top">:</td><td><div>set([])</div></td></tr><tr><td style="font-weight:bold;vertical-align:top">debugging</td><td valign="top">:</td><td><div>True</div></td></tr><tr><td style="font-weight:bold;vertical-align:top">gluon_parent</td><td valign="top">:</td><td><div>/home/saurabh/web2py</div></td></tr><tr><td style="font-weight:bold;vertical-align:top">http_accept</td><td valign="top">:</td><td><div>text/html,application/xhtml+xml,application/xml;q=0.9,*/*;q=0.8</div></td></tr><tr><td style="font-weight:bold;vertical-align:top">http_accept_encoding</td><td valign="top">:</td><td><div>gzip,deflate,sdch</div></td></tr><tr><td style="font-weight:bold;vertical-align:top">http_accept_language</td><td valign="top">:</td><td><div>en-US,en;q=0.8</div></td></tr><tr><td style="font-weight:bold;vertical-align:top">http_cache_control</td><td valign="top">:</td><td><div>max-age=0</div></td></tr><tr><td style="font-weight:bold;vertical-align:top">http_connection</td><td valign="top">:</td><td><div>keep-alive</div></td></tr><tr><td style="font-weight:bold;vertical-align:top">http_content_length</td><td valign="top">:</td><td><div>51</div></td></tr><tr><td style="font-weight:bold;vertical-align:top">http_content_type</td><td valign="top">:</td><td><div>application/x-www-form-urlencoded</div></td></tr><tr><td style="font-weight:bold;vertical-align:top">http_cookie</td><td valign="top">:</td><td><div>session_id_welcome=127.0.0.1-761d2c3e-0e40-4e66-871a-9e1dad97b18b; session_id_admin=127.0.0.1-8e4d65d2-72d5-4cae-9d2d-b189f712c28f; session_id_newsportal=127.0.0.1-e8c59e48-5766-4ea4-af47-27269a6bd7bf</div></td></tr><tr><td style="font-weight:bold;vertical-align:top">http_host</td><td valign="top">:</td><td><div>127.0.0.1:8000</div></td></tr><tr><td style="font-weight:bold;vertical-align:top">http_origin</td><td valign="top">:</td><td><div>http://127.0.0.1:8000</div></td></tr><tr><td style="font-weight:bold;vertical-align:top">http_referer</td><td valign="top">:</td><td><div>http://127.0.0.1:8000/NewsPortal/default/display?cate=8</div></td></tr><tr><td style="font-weight:bold;vertical-align:top">http_user_agent</td><td valign="top">:</td><td><div>Mozilla/5.0 (X11; Linux i686) AppleWebKit/537.36 (KHTML, like Gecko) Chrome/29.0.1547.57 Safari/537.36</div></td></tr><tr><td style="font-weight:bold;vertical-align:top">is_jython</td><td valign="top">:</td><td><div>False</div></td></tr><tr><td style="font-weight:bold;vertical-align:top">is_pypy</td><td valign="top">:</td><td><div>False</div></td></tr><tr><td style="font-weight:bold;vertical-align:top">local_hosts</td><td valign="top">:</td><td><div><table><tr><td><div>127.0.1.1</div></td></tr><tr><td><div>::1</div></td></tr><tr><td><div>saurabh-Inspiron-N4050</div></td></tr><tr><td><div>::ffff:127.0.0.1</div></td></tr><tr><td><div>127.0.0.1</div></td></tr></table></div></td></tr><tr><td style="font-weight:bold;vertical-align:top">path_info</td><td valign="top">:</td><td><div>/NewsPortal/default/add_comment/11</div></td></tr><tr><td style="font-weight:bold;vertical-align:top">query_string</td><td valign="top">:</td><td><div></div></td></tr><tr><td style="font-weight:bold;vertical-align:top">remote_addr</td><td valign="top">:</td><td><div>127.0.0.1</div></td></tr><tr><td style="font-weight:bold;vertical-align:top">remote_port</td><td valign="top">:</td><td><div>55748</div></td></tr><tr><td style="font-weight:bold;vertical-align:top">request_method</td><td valign="top">:</td><td><div>POST</div></td></tr><tr><td style="font-weight:bold;vertical-align:top">request_uri</td><td valign="top">:</td><td><div>/NewsPortal/default/add_comment/11</div></td></tr><tr><td style="font-weight:bold;vertical-align:top">script_name</td><td valign="top">:</td><td><div></div></td></tr><tr><td style="font-weight:bold;vertical-align:top">server_name</td><td valign="top">:</td><td><div>saurabh-Inspiron-N4050</div></td></tr><tr><td style="font-weight:bold;vertical-align:top">server_port</td><td valign="top">:</td><td><div>8000</div></td></tr><tr><td style="font-weight:bold;vertical-align:top">server_protocol</td><td valign="top">:</td><td><div>HTTP/1.1</div></td></tr><tr><td style="font-weight:bold;vertical-align:top">server_software</td><td valign="top">:</td><td><div>Rocket 1.2.6</div></td></tr><tr><td style="font-weight:bold;vertical-align:top">web2py_path</td><td valign="top">:</td><td><div>/home/saurabh/web2py</div></td></tr><tr><td style="font-weight:bold;vertical-align:top">web2py_version</td><td valign="top">:</td><td><div>2.5.1-stable+timestamp.2013.06.06.15.39.19</div></td></tr><tr><td style="font-weight:bold;vertical-align:top">wsgi_errors</td><td valign="top">:</td><td><div>&lt;open file &#x27;&lt;stderr&gt;&#x27;, mode &#x27;w&#x27; at 0xb73240d0&gt;</div></td></tr><tr><td style="font-weight:bold;vertical-align:top">wsgi_file_wrapper</td><td valign="top">:</td><td><div>&lt;class wsgiref.util.FileWrapper at 0xa392e0c&gt;</div></td></tr><tr><td style="font-weight:bold;vertical-align:top">wsgi_input</td><td valign="top">:</td><td><div>&lt;socket._fileobject object at 0xad87daec&gt;</div></td></tr><tr><td style="font-weight:bold;vertical-align:top">wsgi_multiprocess</td><td valign="top">:</td><td><div>False</div></td></tr><tr><td style="font-weight:bold;vertical-align:top">wsgi_multithread</td><td valign="top">:</td><td><div>True</div></td></tr><tr><td style="font-weight:bold;vertical-align:top">wsgi_run_once</td><td valign="top">:</td><td><div>False</div></td></tr><tr><td style="font-weight:bold;vertical-align:top">wsgi_url_scheme</td><td valign="top">:</td><td><div>http</div></td></tr><tr><td style="font-weight:bold;vertical-align:top">wsgi_version</td><td valign="top">:</td><td><div><table><tr><td><div>1</div></td></tr><tr><td><div>0</div></td></tr></table></div></td></tr></table></div></td></tr><tr><td style="font-weight:bold;vertical-align:top">extension</td><td valign="top">:</td><td><div>html</div></td></tr><tr><td style="font-weight:bold;vertical-align:top">folder</td><td valign="top">:</td><td><div>/home/saurabh/web2py/applications/NewsPortal/</div></td></tr><tr><td style="font-weight:bold;vertical-align:top">function</td><td valign="top">:</td><td><div>add_comment</div></td></tr><tr><td style="font-weight:bold;vertical-align:top">get_vars</td><td valign="top">:</td><td><div><table></table></div></td></tr><tr><td style="font-weight:bold;vertical-align:top">global_settings</td><td valign="top">:</td><td><div><table><tr><td style="font-weight:bold;vertical-align:top">app_folders</td><td valign="top">:</td><td><div>set([&#x27;/home/saurabh/web2py/applications/admin/&#x27;, &#x27;/home/saurabh/web2py/applications/NewsPortal/&#x27;, &#x27;/home/saurabh/web2py/applications/welcome/&#x27;])</div></td></tr><tr><td style="font-weight:bold;vertical-align:top">applications_parent</td><td valign="top">:</td><td><div>/home/saurabh/web2py</div></td></tr><tr><td style="font-weight:bold;vertical-align:top">cmd_args</td><td valign="top">:</td><td><div><table></table></div></td></tr><tr><td style="font-weight:bold;vertical-align:top">cmd_options</td><td valign="top">:</td><td><div>&lt;Values at 0xa3e56ac: {&#x27;verbose&#x27;: False, &#x27;ip&#x27;: &#x27;127.0.0.1&#x27;, &#x27;with_scheduler&#x27;: False, &#x27;ips&#x27;: [&#x27;127.0.1.1&#x27;], &#x27;shutdown_timeout&#x27;: 5, &#x27;taskbar&#x27;: False, &#x27;with_coverage&#x27;: False, &#x27;port&#x27;: 8000, &#x27;maxthreads&#x27;: None, &#x27;softcron&#x27;: False, &#x27;server_name&#x27;: &#x27;saurabh-Inspiron-N4050&#x27;, &#x27;bpython&#x27;: False, &#x27;nogui&#x27;: False, &#x27;pid_filename&#x27;: &#x27;httpserver.pid&#x27;, &#x27;extcron&#x27;: False, &#x27;runcron&#x27;: False, &#x27;run_system_tests&#x27;: False, &#x27;test&#x27;: None, &#x27;folder&#x27;: &#x27;/home/saurabh/web2py&#x27;, &#x27;config&#x27;: &#x27;&#x27;, &#x27;import_models&#x27;: False, &#x27;winservice&#x27;: &#x27;&#x27;, &#x27;shell&#x27;: None, &#x27;run&#x27;: &#x27;&#x27;, &#x27;log_filename&#x27;: &#x27;httpserver.log&#x27;, &#x27;debuglevel&#x27;: 30, &#x27;args&#x27;: [&#x27;&#x27;], &#x27;socket_timeout&#x27;: 5, &#x27;ssl_ca_certificate&#x27;: None, &#x27;scheduler&#x27;: None, &#x27;profiler_filename&#x27;: None, &#x27;ssl_private_key&#x27;: &#x27;&#x27;, &#x27;scheduler_groups&#x27;: None, &#x27;password&#x27;: &#x27;&lt;ask&gt;&#x27;, &#x27;request_queue_size&#x27;: 5, &#x27;ssl_certificate&#x27;: &#x27;&#x27;, &#x27;cronjob&#x27;: False, &#x27;numthreads&#x27;: None, &#x27;quiet&#x27;: False, &#x27;interfaces&#x27;: None, &#x27;minthreads&#x27;: None, &#x27;timeout&#x27;: 10, &#x27;plain&#x27;: False, &#x27;nobanner&#x27;: False}&gt;</div></td></tr><tr><td style="font-weight:bold;vertical-align:top">db_sessions</td><td valign="top">:</td><td><div>set([])</div></td></tr><tr><td style="font-weight:bold;vertical-align:top">debugging</td><td valign="top">:</td><td><div>True</div></td></tr><tr><td style="font-weight:bold;vertical-align:top">gluon_parent</td><td valign="top">:</td><td><div>/home/saurabh/web2py</div></td></tr><tr><td style="font-weight:bold;vertical-align:top">is_jython</td><td valign="top">:</td><td><div>False</div></td></tr><tr><td style="font-weight:bold;vertical-align:top">is_pypy</td><td valign="top">:</td><td><div>False</div></td></tr><tr><td style="font-weight:bold;vertical-align:top">local_hosts</td><td valign="top">:</td><td><div><table><tr><td><div>127.0.1.1</div></td></tr><tr><td><div>::1</div></td></tr><tr><td><div>saurabh-Inspiron-N4050</div></td></tr><tr><td><div>::ffff:127.0.0.1</div></td></tr><tr><td><div>127.0.0.1</div></td></tr></table></div></td></tr><tr><td style="font-weight:bold;vertical-align:top">web2py_version</td><td valign="top">:</td><td><div>2.5.1-stable+timestamp.2013.06.06.15.39.19</div></td></tr></table></div></td></tr><tr><td style="font-weight:bold;vertical-align:top">is_https</td><td valign="top">:</td><td><div>False</div></td></tr><tr><td style="font-weight:bold;vertical-align:top">is_local</td><td valign="top">:</td><td><div>True</div></td></tr><tr><td style="font-weight:bold;vertical-align:top">is_restful</td><td valign="top">:</td><td><div>False</div></td></tr><tr><td style="font-weight:bold;vertical-align:top">now</td><td valign="top">:</td><td><div>datetime.datetime(2013, 8, 30, 14, 29, 15, 608208)</div></td></tr><tr><td style="font-weight:bold;vertical-align:top">post_vars</td><td valign="top">:</td><td><div><table><tr><td style="font-weight:bold;vertical-align:top">com</td><td valign="top">:</td><td><div>This is comment of 26/11 attack</div></td></tr><tr><td style="font-weight:bold;vertical-align:top">news_id</td><td valign="top">:</td><td><div>11/</div></td></tr></table></div></td></tr><tr><td style="font-weight:bold;vertical-align:top">raw_args</td><td valign="top">:</td><td><div>11</div></td></tr><tr><td style="font-weight:bold;vertical-align:top">raw_extension</td><td valign="top">:</td><td><div>None</div></td></tr><tr><td style="font-weight:bold;vertical-align:top">url</td><td valign="top">:</td><td><div>/NewsPortal/default/add_comment/11</div></td></tr><tr><td style="font-weight:bold;vertical-align:top">utcnow</td><td valign="top">:</td><td><div>datetime.datetime(2013, 8, 30, 8, 59, 15, 608230)</div></td></tr><tr><td style="font-weight:bold;vertical-align:top">uuid</td><td valign="top">:</td><td><div>NewsPortal/127.0.0.1.2013-08-30.14-29-15.1e837405-d257-45b8-9952-b5a1f1727fa2</div></td></tr><tr><td style="font-weight:bold;vertical-align:top">vars</td><td valign="top">:</td><td><div><table><tr><td style="font-weight:bold;vertical-align:top">com</td><td valign="top">:</td><td><div>This is comment of 26/11 attack</div></td></tr><tr><td style="font-weight:bold;vertical-align:top">news_id</td><td valign="top">:</td><td><div>11/</div></td></tr></table></div></td></tr><tr><td style="font-weight:bold;vertical-align:top">wsgi</td><td valign="top">:</td><td><div><table><tr><td style="font-weight:bold;vertical-align:top">environ</td><td valign="top">:</td><td><div><table><tr><td style="font-weight:bold;vertical-align:top">CONTENT_LENGTH</td><td valign="top">:</td><td><div>51</div></td></tr><tr><td style="font-weight:bold;vertical-align:top">CONTENT_TYPE</td><td valign="top">:</td><td><div>application/x-www-form-urlencoded</div></td></tr><tr><td style="font-weight:bold;vertical-align:top">HTTP_ACCEPT</td><td valign="top">:</td><td><div>text/html,application/xhtml+xml,application/xml;q=0.9,*/*;q=0.8</div></td></tr><tr><td style="font-weight:bold;vertical-align:top">HTTP_ACCEPT_ENCODING</td><td valign="top">:</td><td><div>gzip,deflate,sdch</div></td></tr><tr><td style="font-weight:bold;vertical-align:top">HTTP_ACCEPT_LANGUAGE</td><td valign="top">:</td><td><div>en-US,en;q=0.8</div></td></tr><tr><td style="font-weight:bold;vertical-align:top">HTTP_CACHE_CONTROL</td><td valign="top">:</td><td><div>max-age=0</div></td></tr><tr><td style="font-weight:bold;vertical-align:top">HTTP_CONNECTION</td><td valign="top">:</td><td><div>keep-alive</div></td></tr><tr><td style="font-weight:bold;vertical-align:top">HTTP_CONTENT_LENGTH</td><td valign="top">:</td><td><div>51</div></td></tr><tr><td style="font-weight:bold;vertical-align:top">HTTP_CONTENT_TYPE</td><td valign="top">:</td><td><div>application/x-www-form-urlencoded</div></td></tr><tr><td style="font-weight:bold;vertical-align:top">HTTP_COOKIE</td><td valign="top">:</td><td><div>session_id_welcome=127.0.0.1-761d2c3e-0e40-4e66-871a-9e1dad97b18b; session_id_admin=127.0.0.1-8e4d65d2-72d5-4cae-9d2d-b189f712c28f; session_id_newsportal=127.0.0.1-e8c59e48-5766-4ea4-af47-27269a6bd7bf</div></td></tr><tr><td style="font-weight:bold;vertical-align:top">HTTP_HOST</td><td valign="top">:</td><td><div>127.0.0.1:8000</div></td></tr><tr><td style="font-weight:bold;vertical-align:top">HTTP_ORIGIN</td><td valign="top">:</td><td><div>http://127.0.0.1:8000</div></td></tr><tr><td style="font-weight:bold;vertical-align:top">HTTP_REFERER</td><td valign="top">:</td><td><div>http://127.0.0.1:8000/NewsPortal/default/display?cate=8</div></td></tr><tr><td style="font-weight:bold;vertical-align:top">HTTP_USER_AGENT</td><td valign="top">:</td><td><div>Mozilla/5.0 (X11; Linux i686) AppleWebKit/537.36 (KHTML, like Gecko) Chrome/29.0.1547.57 Safari/537.36</div></td></tr><tr><td style="font-weight:bold;vertical-align:top">PATH_INFO</td><td valign="top">:</td><td><div>/NewsPortal/default/add_comment/11</div></td></tr><tr><td style="font-weight:bold;vertical-align:top">QUERY_STRING</td><td valign="top">:</td><td><div></div></td></tr><tr><td style="font-weight:bold;vertical-align:top">REMOTE_ADDR</td><td valign="top">:</td><td><div>127.0.0.1</div></td></tr><tr><td style="font-weight:bold;vertical-align:top">REMOTE_PORT</td><td valign="top">:</td><td><div>55748</div></td></tr><tr><td style="font-weight:bold;vertical-align:top">REQUEST_METHOD</td><td valign="top">:</td><td><div>POST</div></td></tr><tr><td style="font-weight:bold;vertical-align:top">REQUEST_URI</td><td valign="top">:</td><td><div>/NewsPortal/default/add_comment/11</div></td></tr><tr><td style="font-weight:bold;vertical-align:top">SCRIPT_NAME</td><td valign="top">:</td><td><div></div></td></tr><tr><td style="font-weight:bold;vertical-align:top">SERVER_NAME</td><td valign="top">:</td><td><div>saurabh-Inspiron-N4050</div></td></tr><tr><td style="font-weight:bold;vertical-align:top">SERVER_PORT</td><td valign="top">:</td><td><div>8000</div></td></tr><tr><td style="font-weight:bold;vertical-align:top">SERVER_PROTOCOL</td><td valign="top">:</td><td><div>HTTP/1.1</div></td></tr><tr><td style="font-weight:bold;vertical-align:top">SERVER_SOFTWARE</td><td valign="top">:</td><td><div>Rocket 1.2.6</div></td></tr><tr><td style="font-weight:bold;vertical-align:top">wsgi.errors</td><td valign="top">:</td><td><div>&lt;open file &#x27;&lt;stderr&gt;&#x27;, mode &#x27;w&#x27; at 0xb73240d0&gt;</div></td></tr><tr><td style="font-weight:bold;vertical-align:top">wsgi.file_wrapper</td><td valign="top">:</td><td><div>&lt;class wsgiref.util.FileWrapper at 0xa392e0c&gt;</div></td></tr><tr><td style="font-weight:bold;vertical-align:top">wsgi.input</td><td valign="top">:</td><td><div>&lt;open file &#x27;&lt;fdopen&gt;&#x27;, mode &#x27;w+b&#x27; at 0xade1b808&gt;</div></td></tr><tr><td style="font-weight:bold;vertical-align:top">wsgi.multiprocess</td><td valign="top">:</td><td><div>False</div></td></tr><tr><td style="font-weight:bold;vertical-align:top">wsgi.multithread</td><td valign="top">:</td><td><div>True</div></td></tr><tr><td style="font-weight:bold;vertical-align:top">wsgi.run_once</td><td valign="top">:</td><td><div>False</div></td></tr><tr><td style="font-weight:bold;vertical-align:top">wsgi.url_scheme</td><td valign="top">:</td><td><div>http</div></td></tr><tr><td style="font-weight:bold;vertical-align:top">wsgi.version</td><td valign="top">:</td><td><div>1</div></td></tr></table></div></td></tr></table></div></td></tr></table></div>'
tRp58
sS'frames'
p59
(lp60
(dp61
S'file'
p62
S'/home/saurabh/web2py/gluon/restricted.py'
p63
sS'dump'
p64
(dp65
S'environment'
p66
S"{'A': <class 'gluon.html.A'>, 'ANY_OF': <class 'gluon.validators.ANY_OF'>, 'Auth': <class 'gluon.tools.Auth'>, 'B': <class 'gluon.html.B'>, 'BEAUTIFY': <class 'gluon.html.BEAUTIFY'>, 'BODY': <class 'gluon.html.BODY'>, 'BR': <class 'gluon.html.BR'>, 'BUTTON': <class 'gluon.html.BUTTON'>, 'CAT': <class 'gluon.html.CAT'>, 'CENTER': <class 'gluon.html.CENTER'>, ...}"
p67
sS'ccode'
p68
S'<code object <module> at 0xad32e2a8, file "/home...ions/NewsPortal/controllers/default.py", line 12>'
p69
ssS'lnum'
p70
I212
sS'lines'
p71
(dp72
I207
S'    try:'
p73
sI208
S'        if isinstance(code, types.CodeType):'
p74
sI209
S'            ccode = code'
p75
sI210
S'        else:'
p76
sI211
S'            ccode = compile2(code, layer)'
p77
sI212
S'        exec ccode in environment'
p78
sI213
S'    except HTTP:'
p79
sI214
S'        raise'
p80
sI215
S'    except RestrictedError:'
p81
sI216
S'        # do not encapsulate (obfuscate) the original RestrictedError'
p82
ssS'call'
p83
S"(code='# -*- coding: utf-8 -*-\\n# this file is released ...t)\\n\\nresponse._vars=response._caller(add_comment)\\n', environment={'A': <class 'gluon.html.A'>, 'ANY_OF': <class 'gluon.validators.ANY_OF'>, 'Auth': <class 'gluon.tools.Auth'>, 'B': <class 'gluon.html.B'>, 'BEAUTIFY': <class 'gluon.html.BEAUTIFY'>, 'BODY': <class 'gluon.html.BODY'>, 'BR': <class 'gluon.html.BR'>, 'BUTTON': <class 'gluon.html.BUTTON'>, 'CAT': <class 'gluon.html.CAT'>, 'CENTER': <class 'gluon.html.CENTER'>, ...}, layer='/home/saurabh/web2py/applications/NewsPortal/controllers/default.py')"
p84
sS'func'
p85
S'restricted'
p86
sa(dp87
g62
S'/home/saurabh/web2py/applications/NewsPortal/controllers/default.py'
p88
sg64
(dp89
sg70
I204
sg71
(dp90
I193
S'        return locals()'
p91
sI194
S'def add_comment():'
p92
sI195
S"        commentdata=request.post_vars['com']"
p93
sI196
S"        news_id=request.post_vars['news_id']"
p94
sI197
S'        db.comments.insert(commentdata=commentdata,user_id=auth.user.id,news_id=news_id)'
p95
sI198
S'        category=db(news_id==db.news.id).select(db.news.category)'
p96
sI199
S"        category=category[0]['category']"
p97
sI200
S'        st=""'
p98
sI201
S'        st=st+"display?cate="+str(category)'
p99
sI202
S'        redirect(st)'
p100
ssg83
S'()'
p101
sg85
S'<module>'
p102
sa(dp103
g62
S'/home/saurabh/web2py/gluon/globals.py'
p104
sg64
(dp105
S'self'
p106
S'undefined'
p107
sS'f'
S'<function add_comment>'
p108
ssg70
I194
sg71
(dp109
I192
S"        self.delimiters = ('{{', '}}')"
p110
sI193
S'        self._vars = None'
p111
sI194
S'        self._caller = lambda f: f()'
p112
sI195
S'        self._view_environment = None'
p113
sI196
S'        self._custom_commit = None'
p114
sI197
S'        self._custom_rollback = None'
p115
sI198
S''
sI189
S'        self.menu = []             # used by the default view layout'
p116
sI190
S'        self.files = []            # used by web2py_ajax.html'
p117
sI191
S'        self.generic_patterns = []  # patterns to allow generic views'
p118
ssg83
S'(f=<function add_comment>)'
p119
sg85
S'<lambda>'
p120
sa(dp121
g62
S'/home/saurabh/web2py/applications/NewsPortal/controllers/default.py'
p122
sg64
(dp123
S'db.comments'
p124
S'<Table comments (id,news_id,user_id,commentdata)>'
p125
sS'auth.user.id'
p126
S'3L'
p127
sS'user_id'
p128
g107
sS'db.comments.insert'
p129
S'<bound method Table.insert of <Table comments (id,news_id,user_id,commentdata)>>'
p130
sS'auth.user'
p131
S"<Row {'first_name': 'Saurabh', 'last_name': 'Kat...word_key': '', 'registration_key': '', 'id': 3L}>"
p132
sS'commentdata'
p133
S"'This is comment of 26/11 attack'"
p134
sS'global auth'
p135
S'<gluon.tools.Auth object>'
p136
sS'news_id'
p137
S"'11/'"
p138
sS'global db'
p139
S'<DAL uri="sqlite://storage.sqlite">'
p140
ssg70
I197
sg71
(dp141
I192
S'        redirect(st)'
p142
sI193
S'        return locals()'
p143
sI194
S'def add_comment():'
p144
sI195
S"        commentdata=request.post_vars['com']"
p145
sI196
S"        news_id=request.post_vars['news_id']"
p146
sI197
S'        db.comments.insert(commentdata=commentdata,user_id=auth.user.id,news_id=news_id)'
p147
sI198
S'        category=db(news_id==db.news.id).select(db.news.category)'
p148
sI199
S"        category=category[0]['category']"
p149
sI200
S'        st=""'
p150
sI201
S'        st=st+"display?cate="+str(category)'
p151
ssg83
S'()'
p152
sg85
S'add_comment'
p153
sa(dp154
g62
S'/home/saurabh/web2py/gluon/dal.py'
p155
sg64
(dp156
S'self._listify'
p157
S'<bound method Table._listify of <Table comments (id,news_id,user_id,commentdata)>>'
p158
sS'fields'
p159
S"{'commentdata': 'This is comment of 26/11 attack', 'news_id': '11/', 'user_id': 3L}"
p160
sS'self'
p161
S'<Table comments (id,news_id,user_id,commentdata)>'
p162
sS'ret'
p163
g107
sS'self._db._adapter'
p164
S'<gluon.dal.SQLiteAdapter object>'
p165
sS'self._db._adapter.insert'
p166
S'<bound method SQLiteAdapter.insert of <gluon.dal.SQLiteAdapter object>>'
p167
sS'self._db'
p168
S'<DAL uri="sqlite://storage.sqlite">'
p169
ssg70
I8598
sg71
(dp170
I8593
S''
sI8594
S'    def insert(self, **fields):'
p171
sI8595
S'        fields = self._defaults(fields)'
p172
sI8596
S'        self._attempt_upload(fields)'
p173
sI8597
S'        if any(f(fields) for f in self._before_insert): return 0'
p174
sI8598
S'        ret =  self._db._adapter.insert(self, self._listify(fields))'
p175
sI8599
S'        if ret and self._after_insert:'
p176
sI8600
S'            fields = Row(fields)'
p177
sI8601
S'            [f(fields,ret) for f in self._after_insert]'
p178
sI8602
S'        return ret'
p179
ssg83
S"(self=<Table comments (id,news_id,user_id,commentdata)>, **fields={'commentdata': 'This is comment of 26/11 attack', 'news_id': '11/', 'user_id': 3L})"
p180
sg85
S'insert'
p181
sa(dp182
g62
S'/home/saurabh/web2py/gluon/dal.py'
p183
sg64
(dp184
S'self._insert'
p185
S'<bound method SQLiteAdapter._insert of <gluon.dal.SQLiteAdapter object>>'
p186
sS'query'
p187
g107
sS'self'
p188
S'<gluon.dal.SQLiteAdapter object>'
p189
sS'fields'
p190
S"[(<gluon.dal.Field object>, '11/'), (<gluon.dal.Field object>, 'This is comment of 26/11 attack'), (<gluon.dal.Field object>, 3L)]"
p191
sS'table'
p192
S'<Table comments (id,news_id,user_id,commentdata)>'
p193
ssg70
I1203
sg71
(dp194
I1198
S''
sI1199
S'    def _insert_empty(self, table):'
p195
sI1200
S"        return 'INSERT INTO %s DEFAULT VALUES;' % table"
p196
sI1201
S''
sI1202
S'    def insert(self, table, fields):'
p197
sI1203
S'        query = self._insert(table,fields)'
p198
sI1204
S'        try:'
p199
sI1205
S'            self.execute(query)'
p200
sI1206
S'        except Exception:'
p201
sI1207
S'            e = sys.exc_info()[1]'
p202
ssg83
S"(self=<gluon.dal.SQLiteAdapter object>, table=<Table comments (id,news_id,user_id,commentdata)>, fields=[(<gluon.dal.Field object>, '11/'), (<gluon.dal.Field object>, 'This is comment of 26/11 attack'), (<gluon.dal.Field object>, 3L)])"
p203
sg85
g181
sa(dp204
g62
S'/home/saurabh/web2py/gluon/dal.py'
p205
sg64
(dp206
S'f'
g107
sS'fields'
p207
S"[(<gluon.dal.Field object>, '11/'), (<gluon.dal.Field object>, 'This is comment of 26/11 attack'), (<gluon.dal.Field object>, 3L)]"
p208
sS'self'
p209
S'<gluon.dal.SQLiteAdapter object>'
p210
sS'values'
p211
g107
sS'v'
g107
sS'self.expand'
p212
S'<bound method SQLiteAdapter.expand of <gluon.dal.SQLiteAdapter object>>'
p213
ssg70
I1194
sg71
(dp214
I1189
S"            logfile.write('success!\\n')"
p215
sI1190
S''
sI1191
S'    def _insert(self, table, fields):'
p216
sI1192
S'        if fields:'
p217
sI1193
S"            keys = ','.join(f.name for f, v in fields)"
p218
sI1194
S"            values = ','.join(self.expand(v, f.type) for f, v in fields)"
p219
sI1195
S"            return 'INSERT INTO %s(%s) VALUES (%s);' % (table, keys, values)"
p220
sI1196
S'        else:'
p221
sI1197
S'            return self._insert_empty(table)'
p222
sI1198
S''
ssg83
S"(self=<gluon.dal.SQLiteAdapter object>, table=<Table comments (id,news_id,user_id,commentdata)>, fields=[(<gluon.dal.Field object>, '11/'), (<gluon.dal.Field object>, 'This is comment of 26/11 attack'), (<gluon.dal.Field object>, 3L)])"
p223
sg85
S'_insert'
p224
sa(dp225
g62
S'/home/saurabh/web2py/gluon/dal.py'
p226
sg64
(dp227
S'f'
S'<gluon.dal.Field object>'
p228
sS'fields'
p229
g107
sS'self'
p230
S'<gluon.dal.SQLiteAdapter object>'
p231
sS'f.type'
p232
S"'integer'"
p233
sS'values'
p234
g107
sS'v'
S"'11/'"
p235
sS'self.expand'
p236
S'<bound method SQLiteAdapter.expand of <gluon.dal.SQLiteAdapter object>>'
p237
ssg70
I1194
sg71
(dp238
I1189
S"            logfile.write('success!\\n')"
p239
sI1190
S''
sI1191
S'    def _insert(self, table, fields):'
p240
sI1192
S'        if fields:'
p241
sI1193
S"            keys = ','.join(f.name for f, v in fields)"
p242
sI1194
S"            values = ','.join(self.expand(v, f.type) for f, v in fields)"
p243
sI1195
S"            return 'INSERT INTO %s(%s) VALUES (%s);' % (table, keys, values)"
p244
sI1196
S'        else:'
p245
sI1197
S'            return self._insert_empty(table)'
p246
sI1198
S''
ssg83
S"((f=<gluon.dal.Field object>, v='11/'))"
p247
sg85
S'<genexpr>'
p248
sa(dp249
g62
S'/home/saurabh/web2py/gluon/dal.py'
p250
sg64
(dp251
S'builtinstr'
p252
S"<type 'str'>"
p253
sS'field_type'
p254
S"'integer'"
p255
sS'self'
p256
S'<gluon.dal.SQLiteAdapter object>'
p257
sS'expression'
p258
S"'11/'"
p259
sS'self.represent'
p260
S'<bound method SQLiteAdapter.represent of <gluon.dal.SQLiteAdapter object>>'
p261
ssg70
I1376
sg71
(dp262
I1376
S'            return str(self.represent(expression,field_type))'
p263
sI1377
S'        elif isinstance(expression,(list,tuple)):'
p264
sI1378
S"            return ','.join(self.represent(item,field_type) \\"
p265
sI1379
S'                                for item in expression)'
p266
sI1380
S'        elif isinstance(expression, bool):'
p267
sI1371
S'                    op=op[:-1]'
p268
sI1372
S"                return '(%s)' % op"
p269
sI1373
S'            else:'
p270
sI1374
S'                return op()'
p271
sI1375
S'        elif field_type:'
p272
ssg83
S"(self=<gluon.dal.SQLiteAdapter object>, expression='11/', field_type='integer')"
p273
sg85
S'expand'
p274
sa(dp275
g62
S'/home/saurabh/web2py/gluon/dal.py'
p276
sg64
(dp277
S'builtinstr'
p278
S"<type 'str'>"
p279
sS'builtinlong'
p280
S"<type 'long'>"
p281
sS'obj'
p282
S"'11/'"
p283
ssg70
I1822
sg71
(dp284
I1824
S'            return str(obj)'
p285
sI1825
S"        elif field_is_type('reference'): # reference"
p286
sI1826
S"            if fieldtype.find('.')>0:"
p287
sI1817
S"            if obj and not str(obj)[:1].upper() in '0F':"
p288
sI1818
S'                return self.smart_adapt(self.TRUE)'
p289
sI1819
S'            else:'
p290
sI1820
S'                return self.smart_adapt(self.FALSE)'
p291
sI1821
S"        if fieldtype == 'id' or fieldtype == 'integer':"
p292
sI1822
S'            return str(long(obj))'
p293
sI1823
S"        if field_is_type('decimal'):"
p294
ssg83
S"(self=<gluon.dal.SQLiteAdapter object>, obj='11/', fieldtype='integer')"
p295
sg85
S'represent'
p296
sasS'pyver'
p297
S'Python 2.7.3: /usr/bin/python (prefix: /usr)'
p298
sS'session'
p299
g57
(S'sj\t\x00\x00<div><table><tr><td style="font-weight:bold;vertical-align:top">auth</td><td valign="top">:</td><td><div><table><tr><td style="font-weight:bold;vertical-align:top">expiration</td><td valign="top">:</td><td><div>3600</div></td></tr><tr><td style="font-weight:bold;vertical-align:top">hmac_key</td><td valign="top">:</td><td><div>6a17416c-3b7c-468d-8f59-d6ac172b6bd7</div></td></tr><tr><td style="font-weight:bold;vertical-align:top">last_visit</td><td valign="top">:</td><td><div>datetime.datetime(2013, 8, 30, 14, 28, 52, 506488)</div></td></tr><tr><td style="font-weight:bold;vertical-align:top">remember</td><td valign="top">:</td><td><div>False</div></td></tr><tr><td style="font-weight:bold;vertical-align:top">user</td><td valign="top">:</td><td><div><table><tr><td style="font-weight:bold;vertical-align:top">designation</td><td valign="top">:</td><td><div>A</div></td></tr><tr><td style="font-weight:bold;vertical-align:top">email</td><td valign="top">:</td><td><div>sksaurabhkathpalia@gmail.com</div></td></tr><tr><td style="font-weight:bold;vertical-align:top">first_name</td><td valign="top">:</td><td><div>Saurabh</div></td></tr><tr><td style="font-weight:bold;vertical-align:top">id</td><td valign="top">:</td><td><div>3L</div></td></tr><tr><td style="font-weight:bold;vertical-align:top">last_name</td><td valign="top">:</td><td><div>Kathpalia</div></td></tr><tr><td style="font-weight:bold;vertical-align:top">registration_id</td><td valign="top">:</td><td><div></div></td></tr><tr><td style="font-weight:bold;vertical-align:top">registration_key</td><td valign="top">:</td><td><div></div></td></tr><tr><td style="font-weight:bold;vertical-align:top">reset_password_key</td><td valign="top">:</td><td><div></div></td></tr></table></div></td></tr><tr><td style="font-weight:bold;vertical-align:top">user_groups</td><td valign="top">:</td><td><div><table><tr><td style="font-weight:bold;vertical-align:top">1</td><td valign="top">:</td><td><div>user_3</div></td></tr></table></div></td></tr></table></div></td></tr><tr><td style="font-weight:bold;vertical-align:top">flash</td><td valign="top">:</td><td><div>None</div></td></tr><tr><td style="font-weight:bold;vertical-align:top">last_orderby</td><td valign="top">:</td><td><div>None</div></td></tr><tr><td style="font-weight:bold;vertical-align:top">last_query</td><td valign="top">:</td><td><div>db.category.id&gt;0</div></td></tr></table></div>'
tRp300
sS'etype'
p301
S"<type 'exceptions.ValueError'>"
p302
sS'date'
p303
S'Fri Aug 30 14:29:15 2013'
p304
sS'response'
p305
g57
(S's\xd8,\x00\x00<div><table><tr><td style="font-weight:bold;vertical-align:top">body</td><td valign="top">:</td><td><div>&lt;cStringIO.StringO object at 0xad312540&gt;</div></td></tr><tr><td style="font-weight:bold;vertical-align:top">cookies</td><td valign="top">:</td><td><div><table><tr><td style="font-weight:bold;vertical-align:top">session_id_newsportal</td><td valign="top">:</td><td><div>127.0.0.1-e8c59e48-5766-4ea4-af47-27269a6bd7bf<table><tr><td style="font-weight:bold;vertical-align:top">comment</td><td valign="top">:</td><td><div></div></td></tr><tr><td style="font-weight:bold;vertical-align:top">domain</td><td valign="top">:</td><td><div></div></td></tr><tr><td style="font-weight:bold;vertical-align:top">expires</td><td valign="top">:</td><td><div></div></td></tr><tr><td style="font-weight:bold;vertical-align:top">httponly</td><td valign="top">:</td><td><div></div></td></tr><tr><td style="font-weight:bold;vertical-align:top">max-age</td><td valign="top">:</td><td><div></div></td></tr><tr><td style="font-weight:bold;vertical-align:top">path</td><td valign="top">:</td><td><div>/</div></td></tr><tr><td style="font-weight:bold;vertical-align:top">secure</td><td valign="top">:</td><td><div></div></td></tr><tr><td style="font-weight:bold;vertical-align:top">version</td><td valign="top">:</td><td><div></div></td></tr></table></div></td></tr></table></div></td></tr><tr><td style="font-weight:bold;vertical-align:top">delimiters</td><td valign="top">:</td><td><div><table><tr><td><div>{{</div></td></tr><tr><td><div>}}</div></td></tr></table></div></td></tr><tr><td style="font-weight:bold;vertical-align:top">files</td><td valign="top">:</td><td><div><table></table></div></td></tr><tr><td style="font-weight:bold;vertical-align:top">flash</td><td valign="top">:</td><td><div></div></td></tr><tr><td style="font-weight:bold;vertical-align:top">generic_patterns</td><td valign="top">:</td><td><div><table><tr><td><div>*</div></td></tr></table></div></td></tr><tr><td style="font-weight:bold;vertical-align:top">google_analytics_id</td><td valign="top">:</td><td><div>None</div></td></tr><tr><td style="font-weight:bold;vertical-align:top">headers</td><td valign="top">:</td><td><div><table><tr><td style="font-weight:bold;vertical-align:top">X-Powered-By</td><td valign="top">:</td><td><div>web2py</div></td></tr></table></div></td></tr><tr><td style="font-weight:bold;vertical-align:top">logo</td><td valign="top">:</td><td><div><a class="brand" href="http://www.web2py.com/"><b>web<span>2</span>py</b>&trade;&nbsp;</a></div></td></tr><tr><td style="font-weight:bold;vertical-align:top">menu</td><td valign="top">:</td><td><div><table><tr><td><div><table><tr><td><div>Home</div></td></tr><tr><td><div>False</div></td></tr><tr><td><div>/NewsPortal/default/index</div></td></tr><tr><td><div><table></table></div></td></tr></table></div></td></tr><tr><td><div><table><tr><td><div><span class="highlighted">web2py</span></div></td></tr><tr><td><div>False</div></td></tr><tr><td><div>http://web2py.com</div></td></tr><tr><td><div><table><tr><td><div><table><tr><td><div>My Sites</div></td></tr><tr><td><div>False</div></td></tr><tr><td><div>/admin/default/site</div></td></tr></table></div></td></tr><tr><td><div><table><tr><td><div>This App</div></td></tr><tr><td><div>False</div></td></tr><tr><td><div>/admin/default/design/NewsPortal</div></td></tr><tr><td><div>[(&lt;lazyT &#x27;Controller&#x27;&gt;, False, &#x27;/admin/default/edit/NewsPortal/controllers/default.py&#x27;), (&lt;lazyT &#x27;View&#x27;&gt;, False, &#x27;/admin/default/edit/NewsPortal/views/default/add_comment.html&#x27;), (&lt;lazyT &#x27;Layout&#x27;&gt;, False, &#x27;/admin/default/edit/NewsPortal/views/layout.html&#x27;), (&lt;lazyT &#x27;Stylesheet&#x27;&gt;, False, &#x27;/admin/default/edit/NewsPortal/static/css/web2py.css&#x27;), (&lt;lazyT &#x27;DB Model&#x27;&gt;, False, &#x27;/admin/default/edit/NewsPortal/models/db.py&#x27;), (&lt;lazyT &#x27;Menu Model&#x27;&gt;, False, &#x27;/admin/default/edit/NewsPortal/models/menu.py&#x27;), (&lt;lazyT &#x27;Database&#x27;&gt;, False, &#x27;/NewsPortal/appadmin/index&#x27;), (&lt;lazyT &#x27;Errors&#x27;&gt;, False, &#x27;/admin/default/errors/NewsPortal&#x27;), (&lt;lazyT &#x27;About&#x27;&gt;, False, &#x27;/admin/default/about/NewsPortal&#x27;)]</div></td></tr></table></div></td></tr><tr><td><div><table><tr><td><div>web2py.com</div></td></tr><tr><td><div>False</div></td></tr><tr><td><div>http://www.web2py.com</div></td></tr><tr><td><div>[(&lt;lazyT &#x27;Download&#x27;&gt;, False, &#x27;http://www.web2py.com/examples/default/download&#x27;), (&lt;lazyT &#x27;Support&#x27;&gt;, False, &#x27;http://www.web2py.com/examples/default/support&#x27;), (&lt;lazyT &#x27;Demo&#x27;&gt;, False, &#x27;http://web2py.com/demo_admin&#x27;), (&lt;lazyT &#x27;Quick Examples&#x27;&gt;, False, &#x27;http://web2py.com/examples/default/examples&#x27;), (&lt;lazyT &#x27;FAQ&#x27;&gt;, False, &#x27;http://web2py.com/AlterEgo&#x27;), (&lt;lazyT &#x27;Videos&#x27;&gt;, False, &#x27;http://www.web2py.com/examples/default/videos/&#x27;), (&lt;lazyT &#x27;Free Applications&#x27;&gt;, False, &#x27;http://web2py.com/appliances&#x27;), (&lt;lazyT &#x27;Plugins&#x27;&gt;, False, &#x27;http://web2py.com/plugins&#x27;), (&lt;lazyT &#x27;Layouts&#x27;&gt;, False, &#x27;http://web2py.com/layouts&#x27;), (&lt;lazyT &#x27;Recipes&#x27;&gt;, False, &#x27;http://web2pyslices.com/&#x27;), (&lt;lazyT &#x27;Semantic&#x27;&gt;, False, &#x27;http://web2py.com/semantic&#x27;)]</div></td></tr></table></div></td></tr><tr><td><div><table><tr><td><div>Documentation</div></td></tr><tr><td><div>False</div></td></tr><tr><td><div>http://www.web2py.com/book</div></td></tr><tr><td><div>[(&lt;lazyT &#x27;Preface&#x27;&gt;, False, &#x27;http://www.web2py.com/book/default/chapter/00&#x27;), (&lt;lazyT &#x27;Introduction&#x27;&gt;, False, &#x27;http://www.web2py.com/book/default/chapter/01&#x27;), (&lt;lazyT &#x27;Python&#x27;&gt;, False, &#x27;http://www.web2py.com/book/default/chapter/02&#x27;), (&lt;lazyT &#x27;Overview&#x27;&gt;, False, &#x27;http://www.web2py.com/book/default/chapter/03&#x27;), (&lt;lazyT &#x27;The Core&#x27;&gt;, False, &#x27;http://www.web2py.com/book/default/chapter/04&#x27;), (&lt;lazyT &#x27;The Views&#x27;&gt;, False, &#x27;http://www.web2py.com/book/default/chapter/05&#x27;), (&lt;lazyT &#x27;Database&#x27;&gt;, False, &#x27;http://www.web2py.com/book/default/chapter/06&#x27;), (&lt;lazyT &#x27;Forms and Validators&#x27;&gt;, False, &#x27;http://www.web2py.com/book/default/chapter/07&#x27;), (&lt;lazyT &#x27;Email and SMS&#x27;&gt;, False, &#x27;http://www.web2py.com/book/default/chapter/08&#x27;), (&lt;lazyT &#x27;Access Control&#x27;&gt;, False, &#x27;http://www.web2py.com/book/default/chapter/09&#x27;), (&lt;lazyT &#x27;Services&#x27;&gt;, False, &#x27;http://www.web2py.com/book/default/chapter/10&#x27;), (&lt;lazyT &#x27;Ajax Recipes&#x27;&gt;, False, &#x27;http://www.web2py.com/book/default/chapter/11&#x27;), (&lt;lazyT &#x27;Components and Plugins&#x27;&gt;, False, &#x27;http://www.web2py.com/book/default/chapter/12&#x27;), (&lt;lazyT &#x27;Deployment Recipes&#x27;&gt;, False, &#x27;http://www.web2py.com/book/default/chapter/13&#x27;), (&lt;lazyT &#x27;Other Recipes&#x27;&gt;, False, &#x27;http://www.web2py.com/book/default/chapter/14&#x27;), (&lt;lazyT &#x27;Buy this book&#x27;&gt;, False, &#x27;http://stores.lulu.com/web2py&#x27;)]</div></td></tr></table></div></td></tr><tr><td><div><table><tr><td><div>Community</div></td></tr><tr><td><div>False</div></td></tr><tr><td><div>None</div></td></tr><tr><td><div>[(&lt;lazyT &#x27;Groups&#x27;&gt;, False, &#x27;http://www.web2py.com/examples/default/usergroups&#x27;), (&lt;lazyT &#x27;Twitter&#x27;&gt;, False, &#x27;http://twitter.com/web2py&#x27;), (&lt;lazyT &#x27;Live Chat&#x27;&gt;, False, &#x27;http://webchat.freenode.net/?channels=web2py&#x27;)]</div></td></tr></table></div></td></tr><tr><td><div><table><tr><td><div>Plugins</div></td></tr><tr><td><div>False</div></td></tr><tr><td><div>None</div></td></tr><tr><td><div>[(&#x27;plugin_wiki&#x27;, False, &#x27;http://web2py.com/examples/default/download&#x27;), (&lt;lazyT &#x27;Other Plugins&#x27;&gt;, False, &#x27;http://web2py.com/plugins&#x27;), (&lt;lazyT &#x27;Layout Plugins&#x27;&gt;, False, &#x27;http://web2py.com/layouts&#x27;)]</div></td></tr></table></div></td></tr></table></div></td></tr></table></div></td></tr></table></div></td></tr><tr><td style="font-weight:bold;vertical-align:top">meta</td><td valign="top">:</td><td><div><table><tr><td style="font-weight:bold;vertical-align:top">author</td><td valign="top">:</td><td><div>Your Name &lt;you@example.com&gt;</div></td></tr><tr><td style="font-weight:bold;vertical-align:top">description</td><td valign="top">:</td><td><div>a cool new app</div></td></tr><tr><td style="font-weight:bold;vertical-align:top">generator</td><td valign="top">:</td><td><div>Web2py Web Framework</div></td></tr><tr><td style="font-weight:bold;vertical-align:top">keywords</td><td valign="top">:</td><td><div>web2py, python, framework</div></td></tr></table></div></td></tr><tr><td style="font-weight:bold;vertical-align:top">models_to_run</td><td valign="top">:</td><td><div><table><tr><td><div>^\\w+\\.py$</div></td></tr><tr><td><div>^default/\\w+\\.py$</div></td></tr><tr><td><div>^default/add_comment/\\w+\\.py$</div></td></tr></table></div></td></tr><tr><td style="font-weight:bold;vertical-align:top">postprocessing</td><td valign="top">:</td><td><div><table></table></div></td></tr><tr><td style="font-weight:bold;vertical-align:top">session_cookie_expires</td><td valign="top">:</td><td><div>None</div></td></tr><tr><td style="font-weight:bold;vertical-align:top">session_data_name</td><td valign="top">:</td><td><div>session_data_newsportal</div></td></tr><tr><td style="font-weight:bold;vertical-align:top">session_file</td><td valign="top">:</td><td><div>&lt;open file &#x27;/home/saurabh/web2py/applications/NewsPortal/sessions/127.0.0.1-e8c59e48-5766-4ea4-af47-27269a6bd7bf&#x27;, mode &#x27;rb+&#x27; at 0xade0b390&gt;</div></td></tr><tr><td style="font-weight:bold;vertical-align:top">session_filename</td><td valign="top">:</td><td><div>/home/saurabh/web2py/applications/NewsPortal/sessions/127.0.0.1-e8c59e48-5766-4ea4-af47-27269a6bd7bf</div></td></tr><tr><td style="font-weight:bold;vertical-align:top">session_id</td><td valign="top">:</td><td><div>127.0.0.1-e8c59e48-5766-4ea4-af47-27269a6bd7bf</div></td></tr><tr><td style="font-weight:bold;vertical-align:top">session_id_name</td><td valign="top">:</td><td><div>session_id_newsportal</div></td></tr><tr><td style="font-weight:bold;vertical-align:top">session_locked</td><td valign="top">:</td><td><div>True</div></td></tr><tr><td style="font-weight:bold;vertical-align:top">session_new</td><td valign="top">:</td><td><div>False</div></td></tr><tr><td style="font-weight:bold;vertical-align:top">session_storage_type</td><td valign="top">:</td><td><div>file</div></td></tr><tr><td style="font-weight:bold;vertical-align:top">status</td><td valign="top">:</td><td><div>200</div></td></tr><tr><td style="font-weight:bold;vertical-align:top">subtitle</td><td valign="top">:</td><td><div>customize me!</div></td></tr><tr><td style="font-weight:bold;vertical-align:top">title</td><td valign="top">:</td><td><div>Newsportal</div></td></tr><tr><td style="font-weight:bold;vertical-align:top">view</td><td valign="top">:</td><td><div>default/add_comment.html</div></td></tr></table></div>'
tRp306
sS'locals'
p307
(dp308
S'obj'
p309
S"'11/'"
p310
sS'self'
p311
S'<gluon.dal.SQLiteAdapter object>'
p312
sS'field_is_type'
p313
S'<built-in method startswith of str object>'
p314
sS'r'
S'None'
p315
sS'fieldtype'
p316
S"'integer'"
p317
sssS'traceback'
p318
S'Traceback (most recent call last):\n  File "/home/saurabh/web2py/gluon/restricted.py", line 212, in restricted\n    exec ccode in environment\n  File "/home/saurabh/web2py/applications/NewsPortal/controllers/default.py", line 204, in <module>\n  File "/home/saurabh/web2py/gluon/globals.py", line 194, in <lambda>\n    self._caller = lambda f: f()\n  File "/home/saurabh/web2py/applications/NewsPortal/controllers/default.py", line 197, in add_comment\n    db.comments.insert(commentdata=commentdata,user_id=auth.user.id,news_id=news_id)\n  File "/home/saurabh/web2py/gluon/dal.py", line 8598, in insert\n    ret =  self._db._adapter.insert(self, self._listify(fields))\n  File "/home/saurabh/web2py/gluon/dal.py", line 1203, in insert\n    query = self._insert(table,fields)\n  File "/home/saurabh/web2py/gluon/dal.py", line 1194, in _insert\n    values = \',\'.join(self.expand(v, f.type) for f, v in fields)\n  File "/home/saurabh/web2py/gluon/dal.py", line 1194, in <genexpr>\n    values = \',\'.join(self.expand(v, f.type) for f, v in fields)\n  File "/home/saurabh/web2py/gluon/dal.py", line 1376, in expand\n    return str(self.represent(expression,field_type))\n  File "/home/saurabh/web2py/gluon/dal.py", line 1822, in represent\n    return str(long(obj))\nValueError: invalid literal for long() with base 10: \'11/\'\n'
p319
s.