(dp1
S'output'
p2
S"<type 'exceptions.IndexError'> string index out of range"
p3
sS'layer'
p4
S'/home/saurabh/web2py/applications/NewsPortal/controllers/appadmin.py'
p5
sS'code'
p6
S'# -*- coding: utf-8 -*-\n\n# ##########################################################\n# ## make sure administrator is on localhost\n# ###########################################################\n\nimport os\nimport socket\nimport datetime\nimport copy\nimport gluon.contenttype\nimport gluon.fileutils\n\ntry:\n    import pygraphviz as pgv\nexcept ImportError:\n    pgv = None\n\nresponse.subtitle = \'Database Administration (appadmin)\'\n\n# ## critical --- make a copy of the environment\n\nglobal_env = copy.copy(globals())\nglobal_env[\'datetime\'] = datetime\n\nhttp_host = request.env.http_host.split(\':\')[0]\nremote_addr = request.env.remote_addr\ntry:\n    hosts = (http_host, socket.gethostname(),\n             socket.gethostbyname(http_host),\n             \'::1\', \'127.0.0.1\', \'::ffff:127.0.0.1\')\nexcept:\n    hosts = (http_host, )\n\nif request.env.http_x_forwarded_for or request.is_https:\n    session.secure()\nelif (remote_addr not in hosts) and (remote_addr != "127.0.0.1"):\n    raise HTTP(200, T(\'appadmin is disabled because insecure channel\'))\n\nif request.function in (\'auth_manage\',\'manage\') and \'auth\' in globals():\n    auth.requires_membership(auth.settings.manager_group_role)(lambda: None)()\n    menu = False\nelif (request.application == \'admin\' and not session.authorized) or \\\n        (request.application != \'admin\' and not gluon.fileutils.check_credentials(request)):    \n    redirect(URL(\'admin\', \'default\', \'index\',\n                 vars=dict(send=URL(args=request.args, vars=request.vars))))\nelse:\n    menu = True\n\nignore_rw = True\nresponse.view = \'appadmin.html\'\nif menu:\n    response.menu = [[T(\'design\'), False, URL(\'admin\', \'default\', \'design\',\n                 args=[request.application])], [T(\'db\'), False,\n                 URL(\'index\')], [T(\'state\'), False,\n                 URL(\'state\')], [T(\'cache\'), False,\n                 URL(\'ccache\')]]\n\n# ##########################################################\n# ## auxiliary functions\n# ###########################################################\n\nif False and request.tickets_db:\n    from gluon.restricted import TicketStorage\n    ts = TicketStorage()\n    ts._get_table(request.tickets_db, ts.tablename, request.application)\n\ndef get_databases(request):\n    dbs = {}\n    for (key, value) in global_env.items():\n        cond = False\n        try:\n            cond = isinstance(value, GQLDB)\n        except:\n            cond = isinstance(value, SQLDB)\n        if cond:\n            dbs[key] = value\n    return dbs\n\n\ndatabases = get_databases(None)\n\n\ndef eval_in_global_env(text):\n    exec (\'_ret=%s\' % text, {}, global_env)\n    return global_env[\'_ret\']\n\n\ndef get_database(request):\n    if request.args and request.args[0] in databases:\n        return eval_in_global_env(request.args[0])\n    else:\n        session.flash = T(\'invalid request\')\n        redirect(URL(\'index\'))\n\n\ndef get_table(request):\n    db = get_database(request)\n    if len(request.args) > 1 and request.args[1] in db.tables:\n        return (db, request.args[1])\n    else:\n        session.flash = T(\'invalid request\')\n        redirect(URL(\'index\'))\n\n\ndef get_query(request):\n    try:\n        return eval_in_global_env(request.vars.query)\n    except Exception:\n        return None\n\n\ndef query_by_table_type(tablename, db, request=request):\n    keyed = hasattr(db[tablename], \'_primarykey\')\n    if keyed:\n        firstkey = db[tablename][db[tablename]._primarykey[0]]\n        cond = \'>0\'\n        if firstkey.type in [\'string\', \'text\']:\n            cond = \'!=""\'\n        qry = \'%s.%s.%s%s\' % (\n            request.args[0], request.args[1], firstkey.name, cond)\n    else:\n        qry = \'%s.%s.id>0\' % tuple(request.args[:2])\n    return qry\n\n\n# ##########################################################\n# ## list all databases and tables\n# ###########################################################\ndef index():\n    return dict(databases=databases)\n\n\n# ##########################################################\n# ## insert a new record\n# ###########################################################\n\n\ndef insert():\n    (db, table) = get_table(request)\n    form = SQLFORM(db[table], ignore_rw=ignore_rw)\n    if form.accepts(request.vars, session):\n        response.flash = T(\'new record inserted\')\n    return dict(form=form, table=db[table])\n\n\n# ##########################################################\n# ## list all records in table and insert new record\n# ###########################################################\n\n\ndef download():\n    import os\n    db = get_database(request)\n    return response.download(request, db)\n\n\ndef csv():\n    import gluon.contenttype\n    response.headers[\'Content-Type\'] = \\\n        gluon.contenttype.contenttype(\'.csv\')\n    db = get_database(request)\n    query = get_query(request)\n    if not query:\n        return None\n    response.headers[\'Content-disposition\'] = \'attachment; filename=%s_%s.csv\'\\\n        % tuple(request.vars.query.split(\'.\')[:2])\n    return str(db(query, ignore_common_filters=True).select())\n\n\ndef import_csv(table, file):\n    table.import_from_csv_file(file)\n\n\ndef select():\n    import re\n    db = get_database(request)\n    dbname = request.args[0]\n    regex = re.compile(\'(?P<table>\\w+)\\.(?P<field>\\w+)=(?P<value>\\d+)\')\n    if len(request.args) > 1 and hasattr(db[request.args[1]], \'_primarykey\'):\n        regex = re.compile(\'(?P<table>\\w+)\\.(?P<field>\\w+)=(?P<value>.+)\')\n    if request.vars.query:\n        match = regex.match(request.vars.query)\n        if match:\n            request.vars.query = \'%s.%s.%s==%s\' % (request.args[0],\n                                                   match.group(\'table\'), match.group(\'field\'),\n                                                   match.group(\'value\'))\n    else:\n        request.vars.query = session.last_query\n    query = get_query(request)\n    if request.vars.start:\n        start = int(request.vars.start)\n    else:\n        start = 0\n    nrows = 0\n    stop = start + 100\n    table = None\n    rows = []\n    orderby = request.vars.orderby\n    if orderby:\n        orderby = dbname + \'.\' + orderby\n        if orderby == session.last_orderby:\n            if orderby[0] == \'~\':\n                orderby = orderby[1:]\n            else:\n                orderby = \'~\' + orderby\n    session.last_orderby = orderby\n    session.last_query = request.vars.query\n    form = FORM(TABLE(TR(T(\'Query:\'), \'\', INPUT(_style=\'width:400px\',\n                _name=\'query\', _value=request.vars.query or \'\',\n                requires=IS_NOT_EMPTY(\n                    error_message=T("Cannot be empty")))), TR(T(\'Update:\'),\n                INPUT(_name=\'update_check\', _type=\'checkbox\',\n                value=False), INPUT(_style=\'width:400px\',\n                _name=\'update_fields\', _value=request.vars.update_fields\n                                    or \'\')), TR(T(\'Delete:\'), INPUT(_name=\'delete_check\',\n                _class=\'delete\', _type=\'checkbox\', value=False), \'\'),\n                TR(\'\', \'\', INPUT(_type=\'submit\', _value=T(\'submit\')))),\n                _action=URL(r=request, args=request.args))\n\n    tb = None\n    if form.accepts(request.vars, formname=None):\n        regex = re.compile(request.args[0] + \'\\.(?P<table>\\w+)\\..+\')\n        match = regex.match(form.vars.query.strip())\n        if match:\n            table = match.group(\'table\')\n        try:\n            nrows = db(query).count()\n            if form.vars.update_check and form.vars.update_fields:\n                db(query).update(**eval_in_global_env(\'dict(%s)\'\n                                                      % form.vars.update_fields))\n                response.flash = T(\'%s %%{row} updated\', nrows)\n            elif form.vars.delete_check:\n                db(query).delete()\n                response.flash = T(\'%s %%{row} deleted\', nrows)\n            nrows = db(query).count()\n            if orderby:\n                rows = db(query, ignore_common_filters=True).select(limitby=(\n                    start, stop), orderby=eval_in_global_env(orderby))\n            else:\n                rows = db(query, ignore_common_filters=True).select(\n                    limitby=(start, stop))\n        except Exception, e:\n            import traceback\n            tb = traceback.format_exc()\n            (rows, nrows) = ([], 0)\n            response.flash = DIV(T(\'Invalid Query\'), PRE(str(e)))\n    # begin handle upload csv\n    csv_table = table or request.vars.table\n    if csv_table:\n        formcsv = FORM(str(T(\'or import from csv file\')) + " ",\n                       INPUT(_type=\'file\', _name=\'csvfile\'),\n                       INPUT(_type=\'hidden\', _value=csv_table, _name=\'table\'),\n                       INPUT(_type=\'submit\', _value=T(\'import\')))\n    else:\n        formcsv = None\n    if formcsv and formcsv.process().accepted:\n        try:\n            import_csv(db[request.vars.table],\n                       request.vars.csvfile.file)\n            response.flash = T(\'data uploaded\')\n        except Exception, e:\n            response.flash = DIV(T(\'unable to parse csv file\'), PRE(str(e)))\n    # end handle upload csv\n\n    return dict(\n        form=form,\n        table=table,\n        start=start,\n        stop=stop,\n        nrows=nrows,\n        rows=rows,\n        query=request.vars.query,\n        formcsv=formcsv,\n        tb=tb,\n    )\n\n\n# ##########################################################\n# ## edit delete one record\n# ###########################################################\n\n\ndef update():\n    (db, table) = get_table(request)\n    keyed = hasattr(db[table], \'_primarykey\')\n    record = None\n    db[table]._common_filter = None\n    if keyed:\n        key = [f for f in request.vars if f in db[table]._primarykey]\n        if key:\n            record = db(db[table][key[0]] == request.vars[key[\n                        0]]).select().first()\n    else:\n        record = db(db[table].id == request.args(\n            2)).select().first()\n\n    if not record:\n        qry = query_by_table_type(table, db)\n        session.flash = T(\'record does not exist\')\n        redirect(URL(\'select\', args=request.args[:1],\n                     vars=dict(query=qry)))\n\n    if keyed:\n        for k in db[table]._primarykey:\n            db[table][k].writable = False\n\n    form = SQLFORM(\n        db[table], record, deletable=True, delete_label=T(\'Check to delete\'),\n        ignore_rw=ignore_rw and not keyed,\n        linkto=URL(\'select\',\n                   args=request.args[:1]), upload=URL(r=request,\n                                                      f=\'download\', args=request.args[:1]))\n\n    if form.accepts(request.vars, session):\n        session.flash = T(\'done!\')\n        qry = query_by_table_type(table, db)\n        redirect(URL(\'select\', args=request.args[:1],\n                 vars=dict(query=qry)))\n    return dict(form=form, table=db[table])\n\n\n# ##########################################################\n# ## get global variables\n# ###########################################################\n\n\ndef state():\n    return dict()\n\n\ndef ccache():\n    cache.ram.initialize()\n    cache.disk.initialize()\n\n    form = FORM(\n        P(TAG.BUTTON(\n            T("Clear CACHE?"), _type="submit", _name="yes", _value="yes")),\n        P(TAG.BUTTON(\n            T("Clear RAM"), _type="submit", _name="ram", _value="ram")),\n        P(TAG.BUTTON(\n            T("Clear DISK"), _type="submit", _name="disk", _value="disk")),\n    )\n\n    if form.accepts(request.vars, session):\n        clear_ram = False\n        clear_disk = False\n        session.flash = ""\n        if request.vars.yes:\n            clear_ram = clear_disk = True\n        if request.vars.ram:\n            clear_ram = True\n        if request.vars.disk:\n            clear_disk = True\n\n        if clear_ram:\n            cache.ram.clear()\n            session.flash += T("Ram Cleared")\n        if clear_disk:\n            cache.disk.clear()\n            session.flash += T("Disk Cleared")\n\n        redirect(URL(r=request))\n\n    try:\n        from guppy import hpy\n        hp = hpy()\n    except ImportError:\n        hp = False\n\n    import shelve\n    import os\n    import copy\n    import time\n    import math\n    from gluon import portalocker\n\n    ram = {\n        \'entries\': 0,\n        \'bytes\': 0,\n        \'objects\': 0,\n        \'hits\': 0,\n        \'misses\': 0,\n        \'ratio\': 0,\n        \'oldest\': time.time(),\n        \'keys\': []\n    }\n    disk = copy.copy(ram)\n    total = copy.copy(ram)\n    disk[\'keys\'] = []\n    total[\'keys\'] = []\n\n    def GetInHMS(seconds):\n        hours = math.floor(seconds / 3600)\n        seconds -= hours * 3600\n        minutes = math.floor(seconds / 60)\n        seconds -= minutes * 60\n        seconds = math.floor(seconds)\n\n        return (hours, minutes, seconds)\n\n    for key, value in cache.ram.storage.iteritems():\n        if isinstance(value, dict):\n            ram[\'hits\'] = value[\'hit_total\'] - value[\'misses\']\n            ram[\'misses\'] = value[\'misses\']\n            try:\n                ram[\'ratio\'] = ram[\'hits\'] * 100 / value[\'hit_total\']\n            except (KeyError, ZeroDivisionError):\n                ram[\'ratio\'] = 0\n        else:\n            if hp:\n                ram[\'bytes\'] += hp.iso(value[1]).size\n                ram[\'objects\'] += hp.iso(value[1]).count\n            ram[\'entries\'] += 1\n            if value[0] < ram[\'oldest\']:\n                ram[\'oldest\'] = value[0]\n            ram[\'keys\'].append((key, GetInHMS(time.time() - value[0])))\n    folder = os.path.join(request.folder,\'cache\')\n    if not os.path.exists(folder):\n        os.mkdir(folder)\n    locker = open(os.path.join(folder, \'cache.lock\'), \'a\')\n    portalocker.lock(locker, portalocker.LOCK_EX)\n    disk_storage = shelve.open(\n        os.path.join(folder, \'cache.shelve\'))\n    try:\n        for key, value in disk_storage.items():\n            if isinstance(value, dict):\n                disk[\'hits\'] = value[\'hit_total\'] - value[\'misses\']\n                disk[\'misses\'] = value[\'misses\']\n                try:\n                    disk[\'ratio\'] = disk[\'hits\'] * 100 / value[\'hit_total\']\n                except (KeyError, ZeroDivisionError):\n                    disk[\'ratio\'] = 0\n            else:\n                if hp:\n                    disk[\'bytes\'] += hp.iso(value[1]).size\n                    disk[\'objects\'] += hp.iso(value[1]).count\n                disk[\'entries\'] += 1\n                if value[0] < disk[\'oldest\']:\n                    disk[\'oldest\'] = value[0]\n                disk[\'keys\'].append((key, GetInHMS(time.time() - value[0])))\n\n    finally:\n        portalocker.unlock(locker)\n        locker.close()\n        disk_storage.close()\n\n    total[\'entries\'] = ram[\'entries\'] + disk[\'entries\']\n    total[\'bytes\'] = ram[\'bytes\'] + disk[\'bytes\']\n    total[\'objects\'] = ram[\'objects\'] + disk[\'objects\']\n    total[\'hits\'] = ram[\'hits\'] + disk[\'hits\']\n    total[\'misses\'] = ram[\'misses\'] + disk[\'misses\']\n    total[\'keys\'] = ram[\'keys\'] + disk[\'keys\']\n    try:\n        total[\'ratio\'] = total[\'hits\'] * 100 / (total[\'hits\'] +\n                                                total[\'misses\'])\n    except (KeyError, ZeroDivisionError):\n        total[\'ratio\'] = 0\n\n    if disk[\'oldest\'] < ram[\'oldest\']:\n        total[\'oldest\'] = disk[\'oldest\']\n    else:\n        total[\'oldest\'] = ram[\'oldest\']\n\n    ram[\'oldest\'] = GetInHMS(time.time() - ram[\'oldest\'])\n    disk[\'oldest\'] = GetInHMS(time.time() - disk[\'oldest\'])\n    total[\'oldest\'] = GetInHMS(time.time() - total[\'oldest\'])\n\n    def key_table(keys):\n        return TABLE(\n            TR(TD(B(T(\'Key\'))), TD(B(T(\'Time in Cache (h:m:s)\')))),\n            *[TR(TD(k[0]), TD(\'%02d:%02d:%02d\' % k[1])) for k in keys],\n            **dict(_class=\'cache-keys\',\n                   _style="border-collapse: separate; border-spacing: .5em;"))\n\n    ram[\'keys\'] = key_table(ram[\'keys\'])\n    disk[\'keys\'] = key_table(disk[\'keys\'])\n    total[\'keys\'] = key_table(total[\'keys\'])\n\n    return dict(form=form, total=total,\n                ram=ram, disk=disk, object_stats=hp != False)\n\n\ndef table_template(table):\n    from gluon.html import TR, TD, TABLE, TAG\n\n    def FONT(*args, **kwargs):\n        return TAG.font(*args, **kwargs)\n\n    def types(field):\n        f_type = field.type\n        if not isinstance(f_type,str):\n            return \' \'\n        elif f_type == \'string\':\n            return field.length\n        elif f_type == \'id\':\n            return B(\'pk\')\n        elif f_type.startswith(\'reference\') or \\\n                f_type.startswith(\'list:reference\'):\n            return B(\'fk\')\n        else:\n            return \' \'\n\n    # This is horribe HTML but the only one graphiz understands\n    rows = []\n    cellpadding = 4\n    color = "#000000"\n    bgcolor = "#FFFFFF"\n    face = "Helvetica"\n    face_bold = "Helvetica Bold"\n    border = 0\n\n    rows.append(TR(TD(FONT(table, _face=face_bold, _color=bgcolor),\n                           _colspan=3, _cellpadding=cellpadding,\n                           _align="center", _bgcolor=color)))\n    for row in db[table]:\n        rows.append(TR(TD(FONT(row.name, _color=color, _face=face_bold),\n                              _align="left", _cellpadding=cellpadding,\n                              _border=border),\n                       TD(FONT(row.type, _color=color, _face=face),\n                               _align="left", _cellpadding=cellpadding,\n                               _border=border),\n                       TD(FONT(types(row), _color=color, _face=face),\n                               _align="center", _cellpadding=cellpadding,\n                               _border=border)))\n    return "< %s >" % TABLE(*rows, **dict(_bgcolor=bgcolor, _border=1,\n                                          _cellborder=0, _cellspacing=0)\n                             ).xml()\n\n\ndef bg_graph_model():\n    graph = pgv.AGraph(layout=\'dot\',  directed=True,  strict=False,  rankdir=\'LR\')\n    \n    subgraphs = dict()    \n    for tablename in db.tables:\n        if hasattr(db[tablename],\'_meta_graphmodel\'):\n            meta_graphmodel = db[tablename]._meta_graphmodel\n        else:\n            meta_graphmodel = dict(group=\'Undefined\', color=\'#ECECEC\')\n        \n        group = meta_graphmodel[\'group\'].replace(\' \', \'\') \n        if not subgraphs.has_key(group):\n            subgraphs[group] = dict(meta=meta_graphmodel, tables=[])\n            subgraphs[group][\'tables\'].append(tablename)\n        else:\n            subgraphs[group][\'tables\'].append(tablename)        \n      \n        graph.add_node(tablename, name=tablename, shape=\'plaintext\',\n                       label=table_template(tablename))\n    \n    for n, key in enumerate(subgraphs.iterkeys()):        \n        graph.subgraph(nbunch=subgraphs[key][\'tables\'],\n                    name=\'cluster%d\' % n,\n                    style=\'filled\',\n                    color=subgraphs[key][\'meta\'][\'color\'],\n                    label=subgraphs[key][\'meta\'][\'group\'])   \n\n    for tablename in db.tables:\n        for field in db[tablename]:\n            f_type = field.type\n            if isinstance(f_type,str) and (\n                f_type.startswith(\'reference\') or\n                f_type.startswith(\'list:reference\')):\n                referenced_table = f_type.split()[1].split(\'.\')[0]\n                n1 = graph.get_node(tablename)\n                n2 = graph.get_node(referenced_table)\n                graph.add_edge(n1, n2, color="#4C4C4C", label=\'\')\n\n    graph.layout()\n    #return graph.draw(format=\'png\', prog=\'dot\')\n    if not request.args:\n        return graph.draw(format=\'png\', prog=\'dot\')\n    else:       \n        response.headers[\'Content-Disposition\']=\'attachment;filename=graph.%s\'%request.args(0)\n        if request.args(0) == \'dot\':        \n            return graph.string()\n        else:\n            return graph.draw(format=request.args(0), prog=\'dot\')\n\ndef graph_model():    \n    return dict(databases=databases, pgv=pgv)\n\ndef auth_manage():\n    tablename = request.args(0)\n    if not tablename or not tablename in auth.db.tables:\n        return dict()\n    table = auth.db[tablename]\n    formname = \'%s_grid\' % tablename\n    if tablename == auth.settings.table_user_name:\n        auth.settings.table_user._plural = T(\'Users\')\n        auth.settings.table_membership._plural = T(\'Roles\')\n        auth.settings.table_membership._id.readable = False\n        auth.settings.table_membership.user_id.label = T(\'User\')\n        auth.settings.table_membership.group_id.label = T(\'Role\')\n        grid = SQLFORM.smartgrid(table, args=request.args[:1], user_signature=True,\n                                 linked_tables=[auth.settings.table_membership_name],\n                                 maxtextlength=1000, formname=formname)\n    else:\n        table._id.readable = False\n        auth.settings.table_permission.group_id.label = T(\'Role\')\n        auth.settings.table_permission.name.label = T(\'Permission\')\n        orderby = \'role\' if table == auth.settings.table_group_name else \'group_id\'\n        grid = SQLFORM.grid(table, args=request.args[:1], orderby=table[orderby],\n                            user_signature=True, maxtextlength=1000, formname=formname)    \n    return grid if request.extension==\'load\' else dict(grid=grid)\n\ndef manage():\n    tablename = request.args(0)\n    if tablename in auth.db.tables:\n        grid = SQLFORM.smartgrid(auth.db[tablename], args=request.args[:1])\n    else:\n        return dict()\n    return grid if request.extension==\'load\' else dict(grid=grid)\n\nresponse._vars=response._caller(insert)\n'
p7
sS'snapshot'
p8
(dp9
S'exception'
p10
(dp11
S'__hash__'
p12
S"<method-wrapper '__hash__' of exceptions.IndexError object>"
p13
sS'__setattr__'
p14
S"<method-wrapper '__setattr__' of exceptions.IndexError object>"
p15
sS'__reduce_ex__'
p16
S'<built-in method __reduce_ex__ of exceptions.IndexError object>'
p17
sS'__getslice__'
p18
S"<method-wrapper '__getslice__' of exceptions.IndexError object>"
p19
sS'__getitem__'
p20
S"<method-wrapper '__getitem__' of exceptions.IndexError object>"
p21
sS'__setstate__'
p22
S'<built-in method __setstate__ of exceptions.IndexError object>'
p23
sS'__reduce__'
p24
S'<built-in method __reduce__ of exceptions.IndexError object>'
p25
sS'__str__'
p26
S"<method-wrapper '__str__' of exceptions.IndexError object>"
p27
sS'__format__'
p28
S'<built-in method __format__ of exceptions.IndexError object>'
p29
sS'__getattribute__'
p30
S"<method-wrapper '__getattribute__' of exceptions.IndexError object>"
p31
sS'__class__'
p32
S"<type 'exceptions.IndexError'>"
p33
sS'__unicode__'
p34
S'<built-in method __unicode__ of exceptions.IndexError object>'
p35
sS'__delattr__'
p36
S"<method-wrapper '__delattr__' of exceptions.IndexError object>"
p37
sS'__subclasshook__'
p38
S'<built-in method __subclasshook__ of type object>'
p39
sS'__repr__'
p40
S"<method-wrapper '__repr__' of exceptions.IndexError object>"
p41
sS'args'
p42
S"('string index out of range',)"
p43
sS'__dict__'
p44
S'{}'
p45
sS'__sizeof__'
p46
S'<built-in method __sizeof__ of exceptions.IndexError object>'
p47
sS'__doc__'
p48
S"'Sequence index out of range.'"
p49
sS'__init__'
p50
S"<method-wrapper '__init__' of exceptions.IndexError object>"
p51
sS'__new__'
p52
S'<built-in method __new__ of type object>'
p53
ssS'evalue'
p54
S'string index out of range'
p55
sS'request'
p56
cgluon.html
XML_unpickle
p57
(S's\nV\x00\x00<div><table><tr><td style="font-weight:bold;vertical-align:top">ajax</td><td valign="top">:</td><td><div>False</div></td></tr><tr><td style="font-weight:bold;vertical-align:top">application</td><td valign="top">:</td><td><div>NewsPortal</div></td></tr><tr><td style="font-weight:bold;vertical-align:top">args</td><td valign="top">:</td><td><div><table><tr><td><div>db</div></td></tr><tr><td><div>auth_user</div></td></tr></table></div></td></tr><tr><td style="font-weight:bold;vertical-align:top">body</td><td valign="top">:</td><td><div>&lt;cStringIO.StringO object at 0xae15a340&gt;</div></td></tr><tr><td style="font-weight:bold;vertical-align:top">cid</td><td valign="top">:</td><td><div>None</div></td></tr><tr><td style="font-weight:bold;vertical-align:top">client</td><td valign="top">:</td><td><div>127.0.0.1</div></td></tr><tr><td style="font-weight:bold;vertical-align:top">controller</td><td valign="top">:</td><td><div>appadmin</div></td></tr><tr><td style="font-weight:bold;vertical-align:top">cookies</td><td valign="top">:</td><td><div><table><tr><td style="font-weight:bold;vertical-align:top">session_id_admin</td><td valign="top">:</td><td><div>127.0.0.1-07456d87-2ae9-4702-bad6-d9880555521e<table><tr><td style="font-weight:bold;vertical-align:top">comment</td><td valign="top">:</td><td><div></div></td></tr><tr><td style="font-weight:bold;vertical-align:top">domain</td><td valign="top">:</td><td><div></div></td></tr><tr><td style="font-weight:bold;vertical-align:top">expires</td><td valign="top">:</td><td><div></div></td></tr><tr><td style="font-weight:bold;vertical-align:top">httponly</td><td valign="top">:</td><td><div></div></td></tr><tr><td style="font-weight:bold;vertical-align:top">max-age</td><td valign="top">:</td><td><div></div></td></tr><tr><td style="font-weight:bold;vertical-align:top">path</td><td valign="top">:</td><td><div></div></td></tr><tr><td style="font-weight:bold;vertical-align:top">secure</td><td valign="top">:</td><td><div></div></td></tr><tr><td style="font-weight:bold;vertical-align:top">version</td><td valign="top">:</td><td><div></div></td></tr></table></div></td></tr><tr><td style="font-weight:bold;vertical-align:top">session_id_newsportal</td><td valign="top">:</td><td><div>127.0.0.1-99172aac-f7ab-44a7-806d-dd0e1aeef706<table><tr><td style="font-weight:bold;vertical-align:top">comment</td><td valign="top">:</td><td><div></div></td></tr><tr><td style="font-weight:bold;vertical-align:top">domain</td><td valign="top">:</td><td><div></div></td></tr><tr><td style="font-weight:bold;vertical-align:top">expires</td><td valign="top">:</td><td><div></div></td></tr><tr><td style="font-weight:bold;vertical-align:top">httponly</td><td valign="top">:</td><td><div></div></td></tr><tr><td style="font-weight:bold;vertical-align:top">max-age</td><td valign="top">:</td><td><div></div></td></tr><tr><td style="font-weight:bold;vertical-align:top">path</td><td valign="top">:</td><td><div></div></td></tr><tr><td style="font-weight:bold;vertical-align:top">secure</td><td valign="top">:</td><td><div></div></td></tr><tr><td style="font-weight:bold;vertical-align:top">version</td><td valign="top">:</td><td><div></div></td></tr></table></div></td></tr><tr><td style="font-weight:bold;vertical-align:top">session_id_welcome</td><td valign="top">:</td><td><div>127.0.0.1-193c8300-8467-404c-94eb-17633aa65b87<table><tr><td style="font-weight:bold;vertical-align:top">comment</td><td valign="top">:</td><td><div></div></td></tr><tr><td style="font-weight:bold;vertical-align:top">domain</td><td valign="top">:</td><td><div></div></td></tr><tr><td style="font-weight:bold;vertical-align:top">expires</td><td valign="top">:</td><td><div></div></td></tr><tr><td style="font-weight:bold;vertical-align:top">httponly</td><td valign="top">:</td><td><div></div></td></tr><tr><td style="font-weight:bold;vertical-align:top">max-age</td><td valign="top">:</td><td><div></div></td></tr><tr><td style="font-weight:bold;vertical-align:top">path</td><td valign="top">:</td><td><div></div></td></tr><tr><td style="font-weight:bold;vertical-align:top">secure</td><td valign="top">:</td><td><div></div></td></tr><tr><td style="font-weight:bold;vertical-align:top">version</td><td valign="top">:</td><td><div></div></td></tr></table></div></td></tr></table></div></td></tr><tr><td style="font-weight:bold;vertical-align:top">env</td><td valign="top">:</td><td><div><table><tr><td style="font-weight:bold;vertical-align:top">app_folders</td><td valign="top">:</td><td><div>set([&#x27;/home/saurabh/web2py/applications/admin/&#x27;, &#x27;/home/saurabh/web2py/applications/NewsPortal/&#x27;, &#x27;/home/saurabh/web2py/applications/welcome/&#x27;])</div></td></tr><tr><td style="font-weight:bold;vertical-align:top">applications_parent</td><td valign="top">:</td><td><div>/home/saurabh/web2py</div></td></tr><tr><td style="font-weight:bold;vertical-align:top">cmd_args</td><td valign="top">:</td><td><div><table></table></div></td></tr><tr><td style="font-weight:bold;vertical-align:top">cmd_options</td><td valign="top">:</td><td><div>&lt;Values at 0xa8096ac: {&#x27;verbose&#x27;: False, &#x27;ip&#x27;: &#x27;127.0.0.1&#x27;, &#x27;with_scheduler&#x27;: False, &#x27;ips&#x27;: [&#x27;127.0.1.1&#x27;], &#x27;shutdown_timeout&#x27;: 5, &#x27;taskbar&#x27;: False, &#x27;with_coverage&#x27;: False, &#x27;port&#x27;: 8000, &#x27;maxthreads&#x27;: None, &#x27;softcron&#x27;: False, &#x27;server_name&#x27;: &#x27;saurabh-Inspiron-N4050&#x27;, &#x27;bpython&#x27;: False, &#x27;nogui&#x27;: False, &#x27;pid_filename&#x27;: &#x27;httpserver.pid&#x27;, &#x27;extcron&#x27;: False, &#x27;runcron&#x27;: False, &#x27;run_system_tests&#x27;: False, &#x27;test&#x27;: None, &#x27;folder&#x27;: &#x27;/home/saurabh/web2py&#x27;, &#x27;config&#x27;: &#x27;&#x27;, &#x27;import_models&#x27;: False, &#x27;winservice&#x27;: &#x27;&#x27;, &#x27;shell&#x27;: None, &#x27;run&#x27;: &#x27;&#x27;, &#x27;log_filename&#x27;: &#x27;httpserver.log&#x27;, &#x27;debuglevel&#x27;: 30, &#x27;args&#x27;: [&#x27;&#x27;], &#x27;socket_timeout&#x27;: 5, &#x27;ssl_ca_certificate&#x27;: None, &#x27;scheduler&#x27;: None, &#x27;profiler_filename&#x27;: None, &#x27;ssl_private_key&#x27;: &#x27;&#x27;, &#x27;scheduler_groups&#x27;: None, &#x27;password&#x27;: &#x27;&lt;ask&gt;&#x27;, &#x27;request_queue_size&#x27;: 5, &#x27;ssl_certificate&#x27;: &#x27;&#x27;, &#x27;cronjob&#x27;: False, &#x27;numthreads&#x27;: None, &#x27;quiet&#x27;: False, &#x27;interfaces&#x27;: None, &#x27;minthreads&#x27;: None, &#x27;timeout&#x27;: 10, &#x27;plain&#x27;: False, &#x27;nobanner&#x27;: False}&gt;</div></td></tr><tr><td style="font-weight:bold;vertical-align:top">db_sessions</td><td valign="top">:</td><td><div>set([])</div></td></tr><tr><td style="font-weight:bold;vertical-align:top">debugging</td><td valign="top">:</td><td><div>True</div></td></tr><tr><td style="font-weight:bold;vertical-align:top">gluon_parent</td><td valign="top">:</td><td><div>/home/saurabh/web2py</div></td></tr><tr><td style="font-weight:bold;vertical-align:top">http_accept</td><td valign="top">:</td><td><div>text/html,application/xhtml+xml,application/xml;q=0.9,*/*;q=0.8</div></td></tr><tr><td style="font-weight:bold;vertical-align:top">http_accept_encoding</td><td valign="top">:</td><td><div>gzip,deflate,sdch</div></td></tr><tr><td style="font-weight:bold;vertical-align:top">http_accept_language</td><td valign="top">:</td><td><div>en-US,en;q=0.8</div></td></tr><tr><td style="font-weight:bold;vertical-align:top">http_cache_control</td><td valign="top">:</td><td><div>max-age=0</div></td></tr><tr><td style="font-weight:bold;vertical-align:top">http_connection</td><td valign="top">:</td><td><div>keep-alive</div></td></tr><tr><td style="font-weight:bold;vertical-align:top">http_cookie</td><td valign="top">:</td><td><div>session_id_welcome=127.0.0.1-193c8300-8467-404c-94eb-17633aa65b87; session_id_newsportal=127.0.0.1-99172aac-f7ab-44a7-806d-dd0e1aeef706; session_id_admin=127.0.0.1-07456d87-2ae9-4702-bad6-d9880555521e</div></td></tr><tr><td style="font-weight:bold;vertical-align:top">http_host</td><td valign="top">:</td><td><div>127.0.0.1:8000</div></td></tr><tr><td style="font-weight:bold;vertical-align:top">http_referer</td><td valign="top">:</td><td><div>http://127.0.0.1:8000/NewsPortal/appadmin/select/db?query=db.auth_user.id%3E0</div></td></tr><tr><td style="font-weight:bold;vertical-align:top">http_user_agent</td><td valign="top">:</td><td><div>Mozilla/5.0 (X11; Linux i686) AppleWebKit/537.36 (KHTML, like Gecko) Chrome/29.0.1547.57 Safari/537.36</div></td></tr><tr><td style="font-weight:bold;vertical-align:top">is_jython</td><td valign="top">:</td><td><div>False</div></td></tr><tr><td style="font-weight:bold;vertical-align:top">is_pypy</td><td valign="top">:</td><td><div>False</div></td></tr><tr><td style="font-weight:bold;vertical-align:top">local_hosts</td><td valign="top">:</td><td><div><table><tr><td><div>127.0.1.1</div></td></tr><tr><td><div>::1</div></td></tr><tr><td><div>saurabh-Inspiron-N4050</div></td></tr><tr><td><div>::ffff:127.0.0.1</div></td></tr><tr><td><div>127.0.0.1</div></td></tr></table></div></td></tr><tr><td style="font-weight:bold;vertical-align:top">path_info</td><td valign="top">:</td><td><div>/NewsPortal/appadmin/insert/db/auth_user</div></td></tr><tr><td style="font-weight:bold;vertical-align:top">query_string</td><td valign="top">:</td><td><div></div></td></tr><tr><td style="font-weight:bold;vertical-align:top">remote_addr</td><td valign="top">:</td><td><div>127.0.0.1</div></td></tr><tr><td style="font-weight:bold;vertical-align:top">remote_port</td><td valign="top">:</td><td><div>54713</div></td></tr><tr><td style="font-weight:bold;vertical-align:top">request_method</td><td valign="top">:</td><td><div>GET</div></td></tr><tr><td style="font-weight:bold;vertical-align:top">request_uri</td><td valign="top">:</td><td><div>/NewsPortal/appadmin/insert/db/auth_user</div></td></tr><tr><td style="font-weight:bold;vertical-align:top">script_name</td><td valign="top">:</td><td><div></div></td></tr><tr><td style="font-weight:bold;vertical-align:top">server_name</td><td valign="top">:</td><td><div>saurabh-Inspiron-N4050</div></td></tr><tr><td style="font-weight:bold;vertical-align:top">server_port</td><td valign="top">:</td><td><div>8000</div></td></tr><tr><td style="font-weight:bold;vertical-align:top">server_protocol</td><td valign="top">:</td><td><div>HTTP/1.1</div></td></tr><tr><td style="font-weight:bold;vertical-align:top">server_software</td><td valign="top">:</td><td><div>Rocket 1.2.6</div></td></tr><tr><td style="font-weight:bold;vertical-align:top">web2py_path</td><td valign="top">:</td><td><div>/home/saurabh/web2py</div></td></tr><tr><td style="font-weight:bold;vertical-align:top">web2py_version</td><td valign="top">:</td><td><div>2.5.1-stable+timestamp.2013.06.06.15.39.19</div></td></tr><tr><td style="font-weight:bold;vertical-align:top">wsgi_errors</td><td valign="top">:</td><td><div>&lt;open file &#x27;&lt;stderr&gt;&#x27;, mode &#x27;w&#x27; at 0xb72c10d0&gt;</div></td></tr><tr><td style="font-weight:bold;vertical-align:top">wsgi_file_wrapper</td><td valign="top">:</td><td><div>&lt;class wsgiref.util.FileWrapper at 0xa7b6e0c&gt;</div></td></tr><tr><td style="font-weight:bold;vertical-align:top">wsgi_input</td><td valign="top">:</td><td><div>&lt;socket._fileobject object at 0xada26dec&gt;</div></td></tr><tr><td style="font-weight:bold;vertical-align:top">wsgi_multiprocess</td><td valign="top">:</td><td><div>False</div></td></tr><tr><td style="font-weight:bold;vertical-align:top">wsgi_multithread</td><td valign="top">:</td><td><div>True</div></td></tr><tr><td style="font-weight:bold;vertical-align:top">wsgi_run_once</td><td valign="top">:</td><td><div>False</div></td></tr><tr><td style="font-weight:bold;vertical-align:top">wsgi_url_scheme</td><td valign="top">:</td><td><div>http</div></td></tr><tr><td style="font-weight:bold;vertical-align:top">wsgi_version</td><td valign="top">:</td><td><div><table><tr><td><div>1</div></td></tr><tr><td><div>0</div></td></tr></table></div></td></tr></table></div></td></tr><tr><td style="font-weight:bold;vertical-align:top">extension</td><td valign="top">:</td><td><div>html</div></td></tr><tr><td style="font-weight:bold;vertical-align:top">folder</td><td valign="top">:</td><td><div>/home/saurabh/web2py/applications/NewsPortal/</div></td></tr><tr><td style="font-weight:bold;vertical-align:top">function</td><td valign="top">:</td><td><div>insert</div></td></tr><tr><td style="font-weight:bold;vertical-align:top">get_vars</td><td valign="top">:</td><td><div><table></table></div></td></tr><tr><td style="font-weight:bold;vertical-align:top">global_settings</td><td valign="top">:</td><td><div><table><tr><td style="font-weight:bold;vertical-align:top">app_folders</td><td valign="top">:</td><td><div>set([&#x27;/home/saurabh/web2py/applications/admin/&#x27;, &#x27;/home/saurabh/web2py/applications/NewsPortal/&#x27;, &#x27;/home/saurabh/web2py/applications/welcome/&#x27;])</div></td></tr><tr><td style="font-weight:bold;vertical-align:top">applications_parent</td><td valign="top">:</td><td><div>/home/saurabh/web2py</div></td></tr><tr><td style="font-weight:bold;vertical-align:top">cmd_args</td><td valign="top">:</td><td><div><table></table></div></td></tr><tr><td style="font-weight:bold;vertical-align:top">cmd_options</td><td valign="top">:</td><td><div>&lt;Values at 0xa8096ac: {&#x27;verbose&#x27;: False, &#x27;ip&#x27;: &#x27;127.0.0.1&#x27;, &#x27;with_scheduler&#x27;: False, &#x27;ips&#x27;: [&#x27;127.0.1.1&#x27;], &#x27;shutdown_timeout&#x27;: 5, &#x27;taskbar&#x27;: False, &#x27;with_coverage&#x27;: False, &#x27;port&#x27;: 8000, &#x27;maxthreads&#x27;: None, &#x27;softcron&#x27;: False, &#x27;server_name&#x27;: &#x27;saurabh-Inspiron-N4050&#x27;, &#x27;bpython&#x27;: False, &#x27;nogui&#x27;: False, &#x27;pid_filename&#x27;: &#x27;httpserver.pid&#x27;, &#x27;extcron&#x27;: False, &#x27;runcron&#x27;: False, &#x27;run_system_tests&#x27;: False, &#x27;test&#x27;: None, &#x27;folder&#x27;: &#x27;/home/saurabh/web2py&#x27;, &#x27;config&#x27;: &#x27;&#x27;, &#x27;import_models&#x27;: False, &#x27;winservice&#x27;: &#x27;&#x27;, &#x27;shell&#x27;: None, &#x27;run&#x27;: &#x27;&#x27;, &#x27;log_filename&#x27;: &#x27;httpserver.log&#x27;, &#x27;debuglevel&#x27;: 30, &#x27;args&#x27;: [&#x27;&#x27;], &#x27;socket_timeout&#x27;: 5, &#x27;ssl_ca_certificate&#x27;: None, &#x27;scheduler&#x27;: None, &#x27;profiler_filename&#x27;: None, &#x27;ssl_private_key&#x27;: &#x27;&#x27;, &#x27;scheduler_groups&#x27;: None, &#x27;password&#x27;: &#x27;&lt;ask&gt;&#x27;, &#x27;request_queue_size&#x27;: 5, &#x27;ssl_certificate&#x27;: &#x27;&#x27;, &#x27;cronjob&#x27;: False, &#x27;numthreads&#x27;: None, &#x27;quiet&#x27;: False, &#x27;interfaces&#x27;: None, &#x27;minthreads&#x27;: None, &#x27;timeout&#x27;: 10, &#x27;plain&#x27;: False, &#x27;nobanner&#x27;: False}&gt;</div></td></tr><tr><td style="font-weight:bold;vertical-align:top">db_sessions</td><td valign="top">:</td><td><div>set([])</div></td></tr><tr><td style="font-weight:bold;vertical-align:top">debugging</td><td valign="top">:</td><td><div>True</div></td></tr><tr><td style="font-weight:bold;vertical-align:top">gluon_parent</td><td valign="top">:</td><td><div>/home/saurabh/web2py</div></td></tr><tr><td style="font-weight:bold;vertical-align:top">is_jython</td><td valign="top">:</td><td><div>False</div></td></tr><tr><td style="font-weight:bold;vertical-align:top">is_pypy</td><td valign="top">:</td><td><div>False</div></td></tr><tr><td style="font-weight:bold;vertical-align:top">local_hosts</td><td valign="top">:</td><td><div><table><tr><td><div>127.0.1.1</div></td></tr><tr><td><div>::1</div></td></tr><tr><td><div>saurabh-Inspiron-N4050</div></td></tr><tr><td><div>::ffff:127.0.0.1</div></td></tr><tr><td><div>127.0.0.1</div></td></tr></table></div></td></tr><tr><td style="font-weight:bold;vertical-align:top">web2py_version</td><td valign="top">:</td><td><div>2.5.1-stable+timestamp.2013.06.06.15.39.19</div></td></tr></table></div></td></tr><tr><td style="font-weight:bold;vertical-align:top">is_https</td><td valign="top">:</td><td><div>False</div></td></tr><tr><td style="font-weight:bold;vertical-align:top">is_local</td><td valign="top">:</td><td><div>True</div></td></tr><tr><td style="font-weight:bold;vertical-align:top">is_restful</td><td valign="top">:</td><td><div>False</div></td></tr><tr><td style="font-weight:bold;vertical-align:top">now</td><td valign="top">:</td><td><div>datetime.datetime(2013, 8, 28, 17, 21, 48, 773474)</div></td></tr><tr><td style="font-weight:bold;vertical-align:top">post_vars</td><td valign="top">:</td><td><div><table></table></div></td></tr><tr><td style="font-weight:bold;vertical-align:top">raw_args</td><td valign="top">:</td><td><div>db/auth_user</div></td></tr><tr><td style="font-weight:bold;vertical-align:top">raw_extension</td><td valign="top">:</td><td><div>None</div></td></tr><tr><td style="font-weight:bold;vertical-align:top">url</td><td valign="top">:</td><td><div>/NewsPortal/appadmin/insert/db/auth_user</div></td></tr><tr><td style="font-weight:bold;vertical-align:top">utcnow</td><td valign="top">:</td><td><div>datetime.datetime(2013, 8, 28, 11, 51, 48, 773530)</div></td></tr><tr><td style="font-weight:bold;vertical-align:top">uuid</td><td valign="top">:</td><td><div>NewsPortal/127.0.0.1.2013-08-28.17-21-48.fd6a0b12-9845-4641-82d5-82d278116400</div></td></tr><tr><td style="font-weight:bold;vertical-align:top">vars</td><td valign="top">:</td><td><div><table></table></div></td></tr><tr><td style="font-weight:bold;vertical-align:top">wsgi</td><td valign="top">:</td><td><div><table><tr><td style="font-weight:bold;vertical-align:top">environ</td><td valign="top">:</td><td><div><table><tr><td style="font-weight:bold;vertical-align:top">HTTP_ACCEPT</td><td valign="top">:</td><td><div>text/html,application/xhtml+xml,application/xml;q=0.9,*/*;q=0.8</div></td></tr><tr><td style="font-weight:bold;vertical-align:top">HTTP_ACCEPT_ENCODING</td><td valign="top">:</td><td><div>gzip,deflate,sdch</div></td></tr><tr><td style="font-weight:bold;vertical-align:top">HTTP_ACCEPT_LANGUAGE</td><td valign="top">:</td><td><div>en-US,en;q=0.8</div></td></tr><tr><td style="font-weight:bold;vertical-align:top">HTTP_CACHE_CONTROL</td><td valign="top">:</td><td><div>max-age=0</div></td></tr><tr><td style="font-weight:bold;vertical-align:top">HTTP_CONNECTION</td><td valign="top">:</td><td><div>keep-alive</div></td></tr><tr><td style="font-weight:bold;vertical-align:top">HTTP_COOKIE</td><td valign="top">:</td><td><div>session_id_welcome=127.0.0.1-193c8300-8467-404c-94eb-17633aa65b87; session_id_newsportal=127.0.0.1-99172aac-f7ab-44a7-806d-dd0e1aeef706; session_id_admin=127.0.0.1-07456d87-2ae9-4702-bad6-d9880555521e</div></td></tr><tr><td style="font-weight:bold;vertical-align:top">HTTP_HOST</td><td valign="top">:</td><td><div>127.0.0.1:8000</div></td></tr><tr><td style="font-weight:bold;vertical-align:top">HTTP_REFERER</td><td valign="top">:</td><td><div>http://127.0.0.1:8000/NewsPortal/appadmin/select/db?query=db.auth_user.id%3E0</div></td></tr><tr><td style="font-weight:bold;vertical-align:top">HTTP_USER_AGENT</td><td valign="top">:</td><td><div>Mozilla/5.0 (X11; Linux i686) AppleWebKit/537.36 (KHTML, like Gecko) Chrome/29.0.1547.57 Safari/537.36</div></td></tr><tr><td style="font-weight:bold;vertical-align:top">PATH_INFO</td><td valign="top">:</td><td><div>/NewsPortal/appadmin/insert/db/auth_user</div></td></tr><tr><td style="font-weight:bold;vertical-align:top">QUERY_STRING</td><td valign="top">:</td><td><div></div></td></tr><tr><td style="font-weight:bold;vertical-align:top">REMOTE_ADDR</td><td valign="top">:</td><td><div>127.0.0.1</div></td></tr><tr><td style="font-weight:bold;vertical-align:top">REMOTE_PORT</td><td valign="top">:</td><td><div>54713</div></td></tr><tr><td style="font-weight:bold;vertical-align:top">REQUEST_METHOD</td><td valign="top">:</td><td><div>GET</div></td></tr><tr><td style="font-weight:bold;vertical-align:top">REQUEST_URI</td><td valign="top">:</td><td><div>/NewsPortal/appadmin/insert/db/auth_user</div></td></tr><tr><td style="font-weight:bold;vertical-align:top">SCRIPT_NAME</td><td valign="top">:</td><td><div></div></td></tr><tr><td style="font-weight:bold;vertical-align:top">SERVER_NAME</td><td valign="top">:</td><td><div>saurabh-Inspiron-N4050</div></td></tr><tr><td style="font-weight:bold;vertical-align:top">SERVER_PORT</td><td valign="top">:</td><td><div>8000</div></td></tr><tr><td style="font-weight:bold;vertical-align:top">SERVER_PROTOCOL</td><td valign="top">:</td><td><div>HTTP/1.1</div></td></tr><tr><td style="font-weight:bold;vertical-align:top">SERVER_SOFTWARE</td><td valign="top">:</td><td><div>Rocket 1.2.6</div></td></tr><tr><td style="font-weight:bold;vertical-align:top">wsgi.errors</td><td valign="top">:</td><td><div>&lt;open file &#x27;&lt;stderr&gt;&#x27;, mode &#x27;w&#x27; at 0xb72c10d0&gt;</div></td></tr><tr><td style="font-weight:bold;vertical-align:top">wsgi.file_wrapper</td><td valign="top">:</td><td><div>&lt;class wsgiref.util.FileWrapper at 0xa7b6e0c&gt;</div></td></tr><tr><td style="font-weight:bold;vertical-align:top">wsgi.input</td><td valign="top">:</td><td><div>&lt;cStringIO.StringO object at 0xae15a340&gt;</div></td></tr><tr><td style="font-weight:bold;vertical-align:top">wsgi.multiprocess</td><td valign="top">:</td><td><div>False</div></td></tr><tr><td style="font-weight:bold;vertical-align:top">wsgi.multithread</td><td valign="top">:</td><td><div>True</div></td></tr><tr><td style="font-weight:bold;vertical-align:top">wsgi.run_once</td><td valign="top">:</td><td><div>False</div></td></tr><tr><td style="font-weight:bold;vertical-align:top">wsgi.url_scheme</td><td valign="top">:</td><td><div>http</div></td></tr><tr><td style="font-weight:bold;vertical-align:top">wsgi.version</td><td valign="top">:</td><td><div>1</div></td></tr></table></div></td></tr></table></div></td></tr></table></div>'
tRp58
sS'frames'
p59
(lp60
(dp61
S'file'
p62
S'/home/saurabh/web2py/gluon/restricted.py'
p63
sS'dump'
p64
(dp65
S'environment'
p66
S"{'A': <class 'gluon.html.A'>, 'ANY_OF': <class 'gluon.validators.ANY_OF'>, 'Auth': <class 'gluon.tools.Auth'>, 'B': <class 'gluon.html.B'>, 'BEAUTIFY': <class 'gluon.html.BEAUTIFY'>, 'BODY': <class 'gluon.html.BODY'>, 'BR': <class 'gluon.html.BR'>, 'BUTTON': <class 'gluon.html.BUTTON'>, 'CAT': <class 'gluon.html.CAT'>, 'CENTER': <class 'gluon.html.CENTER'>, ...}"
p67
sS'ccode'
p68
S'<code object <module> at 0xada1b890, file "/home...ions/NewsPortal/controllers/appadmin.py", line 7>'
p69
ssS'lnum'
p70
I212
sS'lines'
p71
(dp72
I207
S'    try:'
p73
sI208
S'        if isinstance(code, types.CodeType):'
p74
sI209
S'            ccode = code'
p75
sI210
S'        else:'
p76
sI211
S'            ccode = compile2(code, layer)'
p77
sI212
S'        exec ccode in environment'
p78
sI213
S'    except HTTP:'
p79
sI214
S'        raise'
p80
sI215
S'    except RestrictedError:'
p81
sI216
S'        # do not encapsulate (obfuscate) the original RestrictedError'
p82
ssS'call'
p83
S"(code='# -*- coding: utf-8 -*-\\n\\n# #####################...d=grid)\\n\\nresponse._vars=response._caller(insert)\\n', environment={'A': <class 'gluon.html.A'>, 'ANY_OF': <class 'gluon.validators.ANY_OF'>, 'Auth': <class 'gluon.tools.Auth'>, 'B': <class 'gluon.html.B'>, 'BEAUTIFY': <class 'gluon.html.BEAUTIFY'>, 'BODY': <class 'gluon.html.BODY'>, 'BR': <class 'gluon.html.BR'>, 'BUTTON': <class 'gluon.html.BUTTON'>, 'CAT': <class 'gluon.html.CAT'>, 'CENTER': <class 'gluon.html.CENTER'>, ...}, layer='/home/saurabh/web2py/applications/NewsPortal/controllers/appadmin.py')"
p84
sS'func'
p85
S'restricted'
p86
sa(dp87
g62
S'/home/saurabh/web2py/applications/NewsPortal/controllers/appadmin.py'
p88
sg64
(dp89
sg70
I615
sg71
(dp90
I608
S'    tablename = request.args(0)'
p91
sI609
S'    if tablename in auth.db.tables:'
p92
sI610
S'        grid = SQLFORM.smartgrid(auth.db[tablename], args=request.args[:1])'
p93
sI611
S'    else:'
p94
sI612
S'        return dict()'
p95
sI613
S"    return grid if request.extension=='load' else dict(grid=grid)"
p96
sI604
S'                            user_signature=True, maxtextlength=1000, formname=formname)'
p97
sI605
S"    return grid if request.extension=='load' else dict(grid=grid)"
p98
sI606
S''
sI607
S'def manage():'
p99
ssg83
S'()'
p100
sg85
S'<module>'
p101
sa(dp102
g62
S'/home/saurabh/web2py/gluon/globals.py'
p103
sg64
(dp104
S'self'
p105
S'undefined'
p106
sS'f'
S'<function insert>'
p107
ssg70
I194
sg71
(dp108
I192
S"        self.delimiters = ('{{', '}}')"
p109
sI193
S'        self._vars = None'
p110
sI194
S'        self._caller = lambda f: f()'
p111
sI195
S'        self._view_environment = None'
p112
sI196
S'        self._custom_commit = None'
p113
sI197
S'        self._custom_rollback = None'
p114
sI198
S''
sI189
S'        self.menu = []             # used by the default view layout'
p115
sI190
S'        self.files = []            # used by web2py_ajax.html'
p116
sI191
S'        self.generic_patterns = []  # patterns to allow generic views'
p117
ssg83
S'(f=<function insert>)'
p118
sg85
S'<lambda>'
p119
sa(dp120
g62
S'/home/saurabh/web2py/applications/NewsPortal/controllers/appadmin.py'
p121
sg64
(dp122
S'global SQLFORM'
p123
S"<class 'gluon.sqlhtml.SQLFORM'>"
p124
sS'db'
p125
S'<DAL uri="sqlite://storage.sqlite">'
p126
sS'global ignore_rw'
p127
S'True'
p128
sS'form'
p129
g106
sS'table'
p130
S"'auth_user'"
p131
ssg70
I141
sg71
(dp132
I136
S'# ###########################################################'
p133
sI137
S''
sI138
S''
sI139
S'def insert():'
p134
sI140
S'    (db, table) = get_table(request)'
p135
sI141
S'    form = SQLFORM(db[table], ignore_rw=ignore_rw)'
p136
sI142
S'    if form.accepts(request.vars, session):'
p137
sI143
S"        response.flash = T('new record inserted')"
p138
sI144
S'    return dict(form=form, table=db[table])'
p139
sI145
S''
ssg83
S'()'
p140
sg85
S'insert'
p141
sa(dp142
g62
S'/home/saurabh/web2py/gluon/sqlhtml.py'
p143
sg64
(dp144
S'default'
p145
S'None'
p146
sS'self.widgets.options.widget'
p147
S"<bound method type.widget of <class 'gluon.sqlhtml.OptionsWidget'>>"
p148
sS'self'
p149
S'<gluon.sqlhtml.SQLFORM object>'
p150
sS'inp'
p151
S'<gluon.html.INPUT object>'
p152
sS'self.widgets'
p153
S"<Storage {'multiple': <class 'gluon.sqlhtml.Mult...ss 'gluon.sqlhtml.OptionsWidget'>, 'blob': None}>"
p154
sS'field'
p155
S'<gluon.dal.Field object>'
p156
sS'self.widgets.options'
p157
S"<class 'gluon.sqlhtml.OptionsWidget'>"
p158
ssg70
I1140
sg71
(dp159
I1135
S"                    inpval = 'checked'"
p160
sI1136
S'                else:'
p161
sI1137
S"                    inpval = ''"
p162
sI1138
S'            elif OptionsWidget.has_options(field):'
p163
sI1139
S'                if not field.requires.multiple:'
p164
sI1140
S'                    inp = self.widgets.options.widget(field, default)'
p165
sI1141
S'                else:'
p166
sI1142
S'                    inp = self.widgets.multiple.widget(field, default)'
p167
sI1143
S'                if fieldname in keepopts:'
p168
sI1144
S"                    inpval = TAG[''](*inp.components)"
p169
ssg83
S"(self=<gluon.sqlhtml.SQLFORM object>, table=<Table auth_user (id,first_name,last_name,email,...,reset_password_key,registration_id,designation)>, record=None, deletable=False, linkto=None, upload=None, fields=['id', 'first_name', 'last_name', 'email', 'password', 'registration_key', 'reset_password_key', 'registration_id', 'designation'], labels=None, col3={}, submit_button='Submit', delete_label='Check to delete', showid=True, readonly=False, comments=True, keepopts=[], ignore_rw=True, record_id=None, formstyle='table3cols', buttons=['submit'], separator=': ', **attributes={})"
p170
sg85
g50
sa(dp171
g62
S'/home/saurabh/web2py/gluon/sqlhtml.py'
p172
sg64
(dp173
S'].options'
p174
g106
sS'requires'
p175
S'[<gluon.validators.IS_IN_SET object>]'
p176
sS'options'
p177
g106
ssg70
I278
sg71
(dp178
I273
S'        requires = field.requires'
p179
sI274
S'        if not isinstance(requires, (list, tuple)):'
p180
sI275
S'            requires = [requires]'
p181
sI276
S'        if requires:'
p182
sI277
S"            if hasattr(requires[0], 'options'):"
p183
sI278
S'                options = requires[0].options()'
p184
sI279
S'            else:'
p185
sI280
S'                raise SyntaxError('
p186
sI281
S"                    'widget cannot determine options of %s' % field)"
p187
sI282
S'        opts = [OPTION(v, _value=k) for (k, v) in options]'
p188
ssg83
S"(cls=<class 'gluon.sqlhtml.OptionsWidget'>, field=<gluon.dal.Field object>, value=None, **attributes={})"
p189
sg85
S'widget'
p190
sa(dp191
g62
S'/home/saurabh/web2py/gluon/validators.py'
p192
sg64
(dp193
S'self.labels'
p194
S"'User'"
p195
sS'i'
S'4'
sS'items'
p196
g106
sS'k'
S"'n'"
p197
sS'self.theset'
p198
S"['A', 'd', 'm', 'i', 'n']"
p199
sS'builtinenumerate'
p200
S"<type 'enumerate'>"
p201
sS'self'
p202
S'<gluon.validators.IS_IN_SET object>'
p203
ssg70
I422
sg71
(dp204
I417
S''
sI418
S'    def options(self, zero=True):'
p205
sI419
S'        if not self.labels:'
p206
sI420
S'            items = [(k, k) for (i, k) in enumerate(self.theset)]'
p207
sI421
S'        else:'
p208
sI422
S'            items = [(k, self.labels[i]) for (i, k) in enumerate(self.theset)]'
p209
sI423
S'        if self.sort:'
p210
sI424
S'            items.sort(options_sorter)'
p211
sI425
S'        if zero and not self.zero is None and not self.multiple:'
p212
sI426
S"            items.insert(0, ('', self.zero))"
p213
ssg83
S'(self=<gluon.validators.IS_IN_SET object>, zero=True)'
p214
sg85
S'options'
p215
sasS'pyver'
p216
S'Python 2.7.3: /usr/bin/python (prefix: /usr)'
p217
sS'session'
p218
g57
(S's\x1a\x01\x00\x00<div><table><tr><td style="font-weight:bold;vertical-align:top">last_orderby</td><td valign="top">:</td><td><div>None</div></td></tr><tr><td style="font-weight:bold;vertical-align:top">last_query</td><td valign="top">:</td><td><div>db.auth_user.id&gt;0</div></td></tr></table></div>'
tRp219
sS'etype'
p220
S"<type 'exceptions.IndexError'>"
p221
sS'date'
p222
S'Wed Aug 28 17:21:48 2013'
p223
sS'response'
p224
g57
(S's\xf5\x18\x00\x00<div><table><tr><td style="font-weight:bold;vertical-align:top">body</td><td valign="top">:</td><td><div>&lt;cStringIO.StringO object at 0xad58d060&gt;</div></td></tr><tr><td style="font-weight:bold;vertical-align:top">cookies</td><td valign="top">:</td><td><div><table><tr><td style="font-weight:bold;vertical-align:top">session_id_newsportal</td><td valign="top">:</td><td><div>127.0.0.1-99172aac-f7ab-44a7-806d-dd0e1aeef706<table><tr><td style="font-weight:bold;vertical-align:top">comment</td><td valign="top">:</td><td><div></div></td></tr><tr><td style="font-weight:bold;vertical-align:top">domain</td><td valign="top">:</td><td><div></div></td></tr><tr><td style="font-weight:bold;vertical-align:top">expires</td><td valign="top">:</td><td><div></div></td></tr><tr><td style="font-weight:bold;vertical-align:top">httponly</td><td valign="top">:</td><td><div></div></td></tr><tr><td style="font-weight:bold;vertical-align:top">max-age</td><td valign="top">:</td><td><div></div></td></tr><tr><td style="font-weight:bold;vertical-align:top">path</td><td valign="top">:</td><td><div>/</div></td></tr><tr><td style="font-weight:bold;vertical-align:top">secure</td><td valign="top">:</td><td><div></div></td></tr><tr><td style="font-weight:bold;vertical-align:top">version</td><td valign="top">:</td><td><div></div></td></tr></table></div></td></tr></table></div></td></tr><tr><td style="font-weight:bold;vertical-align:top">delimiters</td><td valign="top">:</td><td><div><table><tr><td><div>{{</div></td></tr><tr><td><div>}}</div></td></tr></table></div></td></tr><tr><td style="font-weight:bold;vertical-align:top">files</td><td valign="top">:</td><td><div><table></table></div></td></tr><tr><td style="font-weight:bold;vertical-align:top">flash</td><td valign="top">:</td><td><div></div></td></tr><tr><td style="font-weight:bold;vertical-align:top">generic_patterns</td><td valign="top">:</td><td><div><table><tr><td><div>*</div></td></tr></table></div></td></tr><tr><td style="font-weight:bold;vertical-align:top">google_analytics_id</td><td valign="top">:</td><td><div>None</div></td></tr><tr><td style="font-weight:bold;vertical-align:top">headers</td><td valign="top">:</td><td><div><table><tr><td style="font-weight:bold;vertical-align:top">X-Powered-By</td><td valign="top">:</td><td><div>web2py</div></td></tr></table></div></td></tr><tr><td style="font-weight:bold;vertical-align:top">logo</td><td valign="top">:</td><td><div><a class="brand" href="http://www.web2py.com/"><b>web<span>2</span>py</b>&trade;&nbsp;</a></div></td></tr><tr><td style="font-weight:bold;vertical-align:top">menu</td><td valign="top">:</td><td><div><table><tr><td><div><table><tr><td><div>design</div></td></tr><tr><td><div>False</div></td></tr><tr><td><div>/admin/default/design/NewsPortal</div></td></tr></table></div></td></tr><tr><td><div><table><tr><td><div>db</div></td></tr><tr><td><div>False</div></td></tr><tr><td><div>/NewsPortal/appadmin/index</div></td></tr></table></div></td></tr><tr><td><div><table><tr><td><div>state</div></td></tr><tr><td><div>False</div></td></tr><tr><td><div>/NewsPortal/appadmin/state</div></td></tr></table></div></td></tr><tr><td><div><table><tr><td><div>cache</div></td></tr><tr><td><div>False</div></td></tr><tr><td><div>/NewsPortal/appadmin/ccache</div></td></tr></table></div></td></tr></table></div></td></tr><tr><td style="font-weight:bold;vertical-align:top">meta</td><td valign="top">:</td><td><div><table><tr><td style="font-weight:bold;vertical-align:top">author</td><td valign="top">:</td><td><div>Your Name &lt;you@example.com&gt;</div></td></tr><tr><td style="font-weight:bold;vertical-align:top">description</td><td valign="top">:</td><td><div>a cool new app</div></td></tr><tr><td style="font-weight:bold;vertical-align:top">generator</td><td valign="top">:</td><td><div>Web2py Web Framework</div></td></tr><tr><td style="font-weight:bold;vertical-align:top">keywords</td><td valign="top">:</td><td><div>web2py, python, framework</div></td></tr></table></div></td></tr><tr><td style="font-weight:bold;vertical-align:top">models_to_run</td><td valign="top">:</td><td><div><table><tr><td><div>^\\w+\\.py$</div></td></tr><tr><td><div>^appadmin/\\w+\\.py$</div></td></tr><tr><td><div>^appadmin/insert/\\w+\\.py$</div></td></tr></table></div></td></tr><tr><td style="font-weight:bold;vertical-align:top">postprocessing</td><td valign="top">:</td><td><div><table></table></div></td></tr><tr><td style="font-weight:bold;vertical-align:top">session_cookie_expires</td><td valign="top">:</td><td><div>None</div></td></tr><tr><td style="font-weight:bold;vertical-align:top">session_data_name</td><td valign="top">:</td><td><div>session_data_newsportal</div></td></tr><tr><td style="font-weight:bold;vertical-align:top">session_file</td><td valign="top">:</td><td><div>&lt;open file &#x27;/home/saurabh/web2py/applications/NewsPortal/sessions/127.0.0.1-99172aac-f7ab-44a7-806d-dd0e1aeef706&#x27;, mode &#x27;rb+&#x27; at 0xada2f6a8&gt;</div></td></tr><tr><td style="font-weight:bold;vertical-align:top">session_filename</td><td valign="top">:</td><td><div>/home/saurabh/web2py/applications/NewsPortal/sessions/127.0.0.1-99172aac-f7ab-44a7-806d-dd0e1aeef706</div></td></tr><tr><td style="font-weight:bold;vertical-align:top">session_id</td><td valign="top">:</td><td><div>127.0.0.1-99172aac-f7ab-44a7-806d-dd0e1aeef706</div></td></tr><tr><td style="font-weight:bold;vertical-align:top">session_id_name</td><td valign="top">:</td><td><div>session_id_newsportal</div></td></tr><tr><td style="font-weight:bold;vertical-align:top">session_locked</td><td valign="top">:</td><td><div>True</div></td></tr><tr><td style="font-weight:bold;vertical-align:top">session_new</td><td valign="top">:</td><td><div>False</div></td></tr><tr><td style="font-weight:bold;vertical-align:top">session_storage_type</td><td valign="top">:</td><td><div>file</div></td></tr><tr><td style="font-weight:bold;vertical-align:top">status</td><td valign="top">:</td><td><div>200</div></td></tr><tr><td style="font-weight:bold;vertical-align:top">subtitle</td><td valign="top">:</td><td><div>Database Administration (appadmin)</div></td></tr><tr><td style="font-weight:bold;vertical-align:top">title</td><td valign="top">:</td><td><div>Newsportal</div></td></tr><tr><td style="font-weight:bold;vertical-align:top">view</td><td valign="top">:</td><td><div>appadmin.html</div></td></tr></table></div>'
tRp225
sS'locals'
p226
(dp227
S'i'
S'4'
sS'k'
S"'n'"
p228
sS'zero'
p229
g128
sS'self'
p230
S'<gluon.validators.IS_IN_SET object>'
p231
sssS'traceback'
p232
S'Traceback (most recent call last):\n  File "/home/saurabh/web2py/gluon/restricted.py", line 212, in restricted\n    exec ccode in environment\n  File "/home/saurabh/web2py/applications/NewsPortal/controllers/appadmin.py", line 615, in <module>\n  File "/home/saurabh/web2py/gluon/globals.py", line 194, in <lambda>\n    self._caller = lambda f: f()\n  File "/home/saurabh/web2py/applications/NewsPortal/controllers/appadmin.py", line 141, in insert\n    form = SQLFORM(db[table], ignore_rw=ignore_rw)\n  File "/home/saurabh/web2py/gluon/sqlhtml.py", line 1140, in __init__\n    inp = self.widgets.options.widget(field, default)\n  File "/home/saurabh/web2py/gluon/sqlhtml.py", line 278, in widget\n    options = requires[0].options()\n  File "/home/saurabh/web2py/gluon/validators.py", line 422, in options\n    items = [(k, self.labels[i]) for (i, k) in enumerate(self.theset)]\nIndexError: string index out of range\n'
p233
s.